(lp1
ccopy_reg
_reconstructor
p2
(clibnmap.objects.host
NmapHost
p3
c__builtin__
object
p4
NtRp5
(dp6
S'_osfingerprinted'
p7
I00
sS'_address'
p8
(lp9
(dp10
S'addrtype'
p11
S'ipv4'
p12
sS'addr'
p13
S'160.39.186.226'
p14
sasS'_ipv6_addr'
p15
NsS'_extras'
p16
(dp17
sS'_services'
p18
(lp19
sS'_starttime'
p20
S''
sS'_endtime'
p21
S''
sS'_hostnames'
p22
(lp23
sS'_vendor'
p24
NsS'_ipv4_addr'
p25
g14
sS'_mac_addr'
p26
NsS'_main_address'
p27
g14
sS'_status'
p28
(dp29
S'state'
p30
S'down'
p31
sS'reason'
p32
S'no-response'
p33
sS'reason_ttl'
p34
S'0'
ssS'os'
p35
g2
(clibnmap.objects.os
NmapOSFingerprint
p36
g4
NtRp37
(dp38
S'_NmapOSFingerprint__fingerprints'
p39
(lp40
sS'_NmapOSFingerprint__osmatches'
p41
(lp42
sS'_NmapOSFingerprint__ports_used'
p43
(lp44
sbsbag2
(g3
g4
NtRp45
(dp46
g7
I00
sg8
(lp47
(dp48
g11
S'ipv4'
p49
sg13
S'160.39.186.227'
p50
sasg15
Nsg16
(dp51
sg18
(lp52
sg20
S''
sg21
S''
sg22
(lp53
sg24
Nsg25
g50
sg26
Nsg27
g50
sg28
(dp54
g30
S'down'
p55
sg32
S'no-response'
p56
sg34
S'0'
ssg35
g2
(g36
g4
NtRp57
(dp58
g39
(lp59
sg41
(lp60
sg43
(lp61
sbsbag2
(g3
g4
NtRp62
(dp63
g7
I01
sg8
(lp64
(dp65
g11
S'ipv4'
p66
sg13
S'160.39.186.224'
p67
sa(dp68
g11
S'mac'
p69
sg13
S'A0:CC:2B:A0:49:6C'
p70
sasg15
Nsg16
(dp71
S'extraports'
p72
(dp73
S'count'
p74
(dp75
S'count'
p76
S'297'
p77
sg30
S'closed'
p78
ssS'reasons'
p79
(lp80
(dp81
g76
S'297'
p82
sg32
S'resets'
p83
sasS'state'
p84
g75
ssS'distance'
p85
(dp86
S'value'
p87
S'1'
ssS'os'
p88
(dp89
S'osmatches'
p90
(lp91
sS'ports_used'
p92
(lp93
(dp94
g30
S'closed'
p95
sS'portid'
p96
S'20'
p97
sS'proto'
p98
S'tcp'
p99
sasS'osfingerprints'
p100
(lp101
(dp102
S'fingerprint'
p103
S'SCAN(V=7.01%E=4%D=12/14%OT=%CT=20%CU=%PV=N%DS=1%DC=D%G=N%M=A0CC2B%TM=5A32F2CD%P=x86_64-pc-linux-gnu)\nT5(R=N)\nT6(R=N)\nT7(R=N)\nU1(R=N)\nIE(R=N)\n'
p104
sasS'osclasses'
p105
(lp106
ssS'times'
p107
(dp108
S'to'
p109
S'100000'
p110
sS'srtt'
p111
S'6554'
p112
sS'rttvar'
p113
S'545'
p114
sssg18
(lp115
sg20
S'1513288232'
p116
sg21
S'1513288393'
p117
sg22
(lp118
sg24
Nsg25
g67
sg26
g70
sg27
g67
sg28
(dp119
g30
S'up'
p120
sg32
S'arp-response'
p121
sg34
S'0'
ssg35
g2
(g36
g4
NtRp122
(dp123
g39
(lp124
g104
asg41
(lp125
sg43
(lp126
g2
(clibnmap.objects.os
OSFPPortUsed
p127
g4
NtRp128
(dp129
S'_state'
p130
g95
sS'_proto'
p131
g99
sS'_portid'
p132
g97
sbasbsbag2
(g3
g4
NtRp133
(dp134
g7
I01
sg8
(lp135
(dp136
g11
S'ipv4'
p137
sg13
S'160.39.186.229'
p138
sa(dp139
g11
S'mac'
p140
sS'vendor'
p141
S'Apple'
p142
sg13
S'C8:BC:C8:BB:3B:28'
p143
sasg15
Nsg16
(dp144
g72
(dp145
g74
(dp146
g76
S'998'
p147
sg30
S'closed'
p148
ssg79
(lp149
(dp150
g76
S'998'
p151
sg32
S'resets'
p152
sasg84
g146
ssg85
(dp153
g87
S'1'
ssg88
(dp154
g90
(lp155
sg92
(lp156
(dp157
g30
S'open'
p158
sg96
S'3283'
p159
sg98
S'tcp'
p160
sa(dp161
g30
S'closed'
p162
sg96
S'1'
sg98
S'tcp'
p163
sasg100
(lp164
(dp165
g103
S'SCAN(V=7.01%E=4%D=12/14%OT=3283%CT=1%CU=%PV=N%DS=1%DC=D%G=N%M=C8BCC8%TM=5A32F2CD%P=x86_64-pc-linux-gnu)\nECN(R=N)\nT1(R=N)\nT2(R=N)\nT3(R=N)\nT4(R=N)\nT5(R=N)\nT6(R=N)\nT7(R=N)\nU1(R=N)\nIE(R=N)\n'
p166
sasg105
(lp167
ssg107
(dp168
g109
S'269077'
p169
sg111
S'59069'
p170
sg113
S'52502'
p171
sssg18
(lp172
g2
(clibnmap.objects.service
NmapService
p173
g4
NtRp174
(dp175
S'_tunnel'
p176
S''
sg132
I21
sS'_cpelist'
p177
(lp178
sS'_reason'
p179
S'no-response'
p180
sg130
(dp181
g30
S'filtered'
p182
sg32
g180
sg34
S'0'
ssS'_reason_ttl'
p183
S'0'
sS'_owner'
p184
S''
sS'_reason_ip'
p185
S''
sS'_servicefp'
p186
S''
sS'_protocol'
p187
S'tcp'
p188
sS'_service_extras'
p189
(dp190
S'scripts'
p191
(lp192
ssS'_service'
p193
(dp194
S'name'
p195
S'ftp'
p196
sS'method'
p197
S'table'
p198
sS'conf'
p199
S'3'
sS'cpelist'
p200
(lp201
ssbag2
(g173
g4
NtRp202
(dp203
g176
S''
sg132
I3283
sg177
(lp204
sg179
S'syn-ack'
p205
sg130
(dp206
g30
S'open'
p207
sg32
g205
sg34
S'64'
p208
ssg183
g208
sg184
S''
sg185
S''
sg186
S''
sg187
S'tcp'
p209
sg189
(dp210
g191
(lp211
ssg193
(dp212
g195
S'netassistant'
p213
sg197
S'table'
p214
sg199
S'3'
sg200
(lp215
ssbasg20
S'1513288232'
p216
sg21
S'1513288397'
p217
sg22
(lp218
sg24
g142
sg25
g138
sg26
g143
sg27
g138
sg28
(dp219
g30
S'up'
p220
sg32
S'arp-response'
p221
sg34
S'0'
ssg35
g2
(g36
g4
NtRp222
(dp223
g39
(lp224
g166
asg41
(lp225
sg43
(lp226
g2
(g127
g4
NtRp227
(dp228
g130
g158
sg131
g160
sg132
g159
sbag2
(g127
g4
NtRp229
(dp230
g130
g162
sg131
g163
sg132
S'1'
sbasbsbag2
(g3
g4
NtRp231
(dp232
g7
I01
sg8
(lp233
(dp234
g11
S'ipv4'
p235
sg13
S'160.39.186.230'
p236
sasg15
Nsg16
(dp237
g85
(dp238
g87
S'0'
ssS'uptime'
p239
(dp240
S'seconds'
p241
S'1107654'
p242
sS'lastboot'
p243
S'Fri Dec  1 21:12:27 2017'
p244
ssg107
(dp245
g109
S'100000'
p246
sg111
S'40'
p247
sg113
S'0'
ssS'tcpsequence'
p248
(dp249
S'index'
p250
S'257'
p251
sS'values'
p252
S'24510A8E,E3634C82,7B0F27D6,3F8F16BA,E5C3A0A5,2D4FC3C'
p253
sS'difficulty'
p254
S'Good luck!'
p255
ssS'tcptssequence'
p256
(dp257
g252
S'10815C25,10815C3E,10815C57,10815C70,10815C89,10815CA2'
p258
sS'class'
p259
S'other'
p260
ssg72
(dp261
g74
(dp262
g76
S'999'
p263
sg30
S'closed'
p264
ssg79
(lp265
(dp266
g76
S'999'
p267
sg32
S'resets'
p268
sasg84
g262
ssg88
(dp269
g90
(lp270
(dp271
S'osmatch'
p272
(dp273
S'line'
p274
S'57420'
p275
sg195
S'Linux 3.12 - 3.19'
p276
sS'accuracy'
p277
S'100'
p278
ssg105
(lp279
(dp280
S'osclass'
p281
(dp282
S'type'
p283
S'general purpose'
p284
sS'osfamily'
p285
S'Linux'
p286
sg141
S'Linux'
p287
sS'osgen'
p288
S'3.X'
p289
sg277
S'100'
p290
ssS'cpe'
p291
(lp292
S'cpe:/o:linux:linux_kernel:3'
p293
asasa(dp294
g272
(dp295
g274
S'59486'
p296
sg195
S'Linux 3.8 - 3.19'
p297
sg277
S'100'
p298
ssg105
(lp299
(dp300
g281
(dp301
g283
S'general purpose'
p302
sg285
S'Linux'
p303
sg141
S'Linux'
p304
sg288
S'3.X'
p305
sg277
S'100'
p306
ssg291
(lp307
S'cpe:/o:linux:linux_kernel:3'
p308
asasasg92
(lp309
(dp310
g30
S'open'
p311
sg96
S'5009'
p312
sg98
S'tcp'
p313
sa(dp314
g30
S'closed'
p315
sg96
S'1'
sg98
S'tcp'
p316
sa(dp317
g30
S'closed'
p318
sg96
S'44530'
p319
sg98
S'udp'
p320
sasg100
(lp321
(dp322
g103
S'OS:SCAN(V=7.01%E=4%D=12/14%OT=5009%CT=1%CU=44530%PV=N%DS=0%DC=L%G=Y%TM=5A32\nOS:F2D1%P=x86_64-pc-linux-gnu)SEQ(SP=101%GCD=1%ISR=10C%TI=Z%CI=I%TS=8)OPS(O\nOS:1=MFFD7ST11NW7%O2=MFFD7ST11NW7%O3=MFFD7NNT11NW7%O4=MFFD7ST11NW7%O5=MFFD7\nOS:ST11NW7%O6=MFFD7ST11)WIN(W1=AAAA%W2=AAAA%W3=AAAA%W4=AAAA%W5=AAAA%W6=AAAA\nOS:)ECN(R=Y%DF=Y%T=40%W=AAAA%O=MFFD7NNSNW7%CC=Y%Q=)T1(R=Y%DF=Y%T=40%S=O%A=S\nOS:+%F=AS%RD=0%Q=)T2(R=N)T3(R=N)T4(R=Y%DF=Y%T=40%W=0%S=A%A=Z%F=R%O=%RD=0%Q=\nOS:)T5(R=Y%DF=Y%T=40%W=0%S=Z%A=S+%F=AR%O=%RD=0%Q=)T6(R=Y%DF=Y%T=40%W=0%S=A%\nOS:A=Z%F=R%O=%RD=0%Q=)T7(R=Y%DF=Y%T=40%W=0%S=Z%A=S+%F=AR%O=%RD=0%Q=)U1(R=Y%\nOS:DF=N%T=40%IPL=164%UN=0%RIPL=G%RID=G%RIPCK=G%RUCK=G%RUD=G)IE(R=Y%DFI=N%T=\nOS:40%CD=S)\n'
p323
sasg105
(lp324
ssS'ipidsequence'
p325
(dp326
g252
S'0,0,0,0,0,0'
p327
sg259
S'All zeros'
p328
sssg18
(lp329
g2
(g173
g4
NtRp330
(dp331
g176
S''
sg132
I5009
sg177
(lp332
sg179
S'syn-ack'
p333
sg130
(dp334
g30
S'open'
p335
sg32
g333
sg34
S'64'
p336
ssg183
g336
sg184
S''
sg185
S''
sg186
S''
sg187
S'tcp'
p337
sg189
(dp338
g191
(lp339
ssg193
(dp340
g195
S'airport-admin'
p341
sg197
S'table'
p342
sg199
S'3'
sg200
(lp343
ssbasg20
S'1513288397'
p344
sg21
S'1513288400'
p345
sg22
(lp346
sg24
Nsg25
g236
sg26
Nsg27
g236
sg28
(dp347
g30
S'up'
p348
sg32
S'user-set'
p349
sg34
S'0'
ssg35
g2
(g36
g4
NtRp350
(dp351
g39
(lp352
g323
asg41
(lp353
g2
(clibnmap.objects.os
NmapOSMatch
p354
g4
NtRp355
(dp356
S'_line'
p357
g275
sS'_accuracy'
p358
g278
sS'_osclasses'
p359
(lp360
g2
(clibnmap.objects.os
NmapOSClass
p361
g4
NtRp362
(dp363
S'_type'
p364
g284
sg177
(lp365
g2
(clibnmap.objects.cpe
CPE
p366
g4
NtRp367
(dp368
S'cpedict'
p369
(dp370
sS'_cpestring'
p371
g293
sS'_cpedict'
p372
(dp373
S'product'
p374
S'linux_kernel'
p375
sS'vendor'
p376
S'linux'
p377
sS'language'
p378
S''
sg291
S'cpe'
p379
sS'update'
p380
S''
sS'edition'
p381
S''
sS'version'
p382
S'3'
sS'part'
p383
S'/o'
p384
ssbasg358
g290
sg24
g287
sS'_osfamily'
p385
g286
sS'_osgen'
p386
g289
sbasS'_name'
p387
g276
sbag2
(g354
g4
NtRp388
(dp389
g357
g296
sg358
g298
sg359
(lp390
g2
(g361
g4
NtRp391
(dp392
g364
g302
sg177
(lp393
g2
(g366
g4
NtRp394
(dp395
g369
(dp396
sg371
g308
sg372
(dp397
g374
S'linux_kernel'
p398
sg376
S'linux'
p399
sg378
S''
sg291
S'cpe'
p400
sg380
S''
sg381
S''
sg382
S'3'
sg383
S'/o'
p401
ssbasg358
g306
sg24
g304
sg385
g303
sg386
g305
sbasg387
g297
sbasg43
(lp402
g2
(g127
g4
NtRp403
(dp404
g130
g311
sg131
g313
sg132
g312
sbag2
(g127
g4
NtRp405
(dp406
g130
g315
sg131
g316
sg132
S'1'
sbag2
(g127
g4
NtRp407
(dp408
g130
g318
sg131
g320
sg132
g319
sbasbsbag2
(g3
g4
NtRp409
(dp410
g7
I01
sg8
(lp411
(dp412
S'addrtype'
p413
S'ipv4'
p414
sS'addr'
p415
S'169.30.11.23'
p416
sasg15
Nsg16
(dp417
S'extraports'
p418
(dp419
S'count'
p420
(dp421
S'count'
p422
S'1000'
p423
sS'state'
p424
S'filtered'
p425
ssS'reasons'
p426
(lp427
(dp428
g422
S'1000'
p429
sS'reason'
p430
S'no-responses'
p431
sasS'state'
p432
g421
ssS'os'
p433
(dp434
S'osmatches'
p435
(lp436
sS'ports_used'
p437
(lp438
sS'osclasses'
p439
(lp440
sS'osfingerprints'
p441
(lp442
(dp443
S'fingerprint'
p444
S'SCAN(V=7.01%E=4%D=12/14%OT=%CT=%CU=%PV=N%G=N%TM=5A32F50C%P=x86_64-pc-linux-gnu)\nU1(R=N)\nIE(R=N)\n'
p445
sasssg18
(lp446
sg20
S'1513288866'
p447
sg21
S'1513288972'
p448
sg22
(lp449
sg24
Nsg25
g416
sg26
Nsg27
g416
sg28
(dp450
g424
S'up'
p451
sg430
S'user-set'
p452
sS'reason_ttl'
p453
S'0'
ssg35
g2
(g36
g4
NtRp454
(dp455
g39
(lp456
g445
asg41
(lp457
sg43
(lp458
sbsbag2
(g3
g4
NtRp459
(dp460
g7
I01
sg8
(lp461
(dp462
S'addrtype'
p463
S'ipv4'
p464
sS'addr'
p465
S'160.39.165.32'
p466
sasg15
Nsg16
(dp467
S'extraports'
p468
(dp469
S'count'
p470
(dp471
S'count'
p472
S'987'
p473
sS'state'
p474
S'closed'
p475
ssS'reasons'
p476
(lp477
(dp478
g472
S'987'
p479
sS'reason'
p480
S'resets'
p481
sasS'state'
p482
g471
ssS'distance'
p483
(dp484
S'value'
p485
S'2'
ssg35
(dp486
S'osmatches'
p487
(lp488
(dp489
S'osmatch'
p490
(dp491
S'line'
p492
S'7376'
p493
sS'name'
p494
S'Asus O!Play media player (Linux 2.6.12)'
p495
sS'accuracy'
p496
S'100'
p497
ssS'osclasses'
p498
(lp499
(dp500
S'osclass'
p501
(dp502
S'type'
p503
S'media device'
p504
sS'osfamily'
p505
S'embedded'
p506
sS'vendor'
p507
S'Asus'
p508
sg496
S'100'
p509
ssS'cpe'
p510
(lp511
sa(dp512
g501
(dp513
g503
S'media device'
p514
sg505
S'Linux'
p515
sg507
S'Linux'
p516
sS'osgen'
p517
S'2.6.X'
p518
sg496
S'100'
p519
ssg510
(lp520
S'cpe:/o:linux:linux_kernel:2.6.12'
p521
asasa(dp522
g490
(dp523
g492
S'42517'
p524
sg494
S'Linux 2.6.14 - 2.6.34'
p525
sg496
S'100'
p526
ssg498
(lp527
(dp528
g501
(dp529
g503
S'general purpose'
p530
sg505
S'Linux'
p531
sg507
S'Linux'
p532
sg517
S'2.6.X'
p533
sg496
S'100'
p534
ssg510
(lp535
S'cpe:/o:linux:linux_kernel:2.6'
p536
asasa(dp537
g490
(dp538
g492
S'43079'
p539
sg494
S'Linux 2.6.17 (Mandriva)'
p540
sg496
S'100'
p541
ssg498
(lp542
(dp543
g501
(dp544
g503
S'general purpose'
p545
sg505
S'Linux'
p546
sg507
S'Linux'
p547
sg517
S'2.6.X'
p548
sg496
S'100'
p549
ssg510
(lp550
S'cpe:/o:linux:linux_kernel:2.6.17'
p551
asasa(dp552
g490
(dp553
g492
S'45724'
p554
sg494
S'Linux 2.6.22'
p555
sg496
S'100'
p556
ssg498
(lp557
(dp558
g501
(dp559
g503
S'general purpose'
p560
sg505
S'Linux'
p561
sg507
S'Linux'
p562
sg517
S'2.6.X'
p563
sg496
S'100'
p564
ssg510
(lp565
S'cpe:/o:linux:linux_kernel:2.6.22'
p566
asasa(dp567
g490
(dp568
g492
S'46965'
p569
sg494
S'Linux 2.6.24 - 2.6.28'
p570
sg496
S'100'
p571
ssg498
(lp572
(dp573
g501
(dp574
g503
S'general purpose'
p575
sg505
S'Linux'
p576
sg507
S'Linux'
p577
sg517
S'2.6.X'
p578
sg496
S'100'
p579
ssg510
(lp580
S'cpe:/o:linux:linux_kernel:2.6'
p581
asasasS'ports_used'
p582
(lp583
(dp584
g474
S'closed'
p585
sS'portid'
p586
S'1'
sS'proto'
p587
S'tcp'
p588
sa(dp589
g474
S'closed'
p590
sg586
S'42503'
p591
sg587
S'udp'
p592
sasS'osfingerprints'
p593
(lp594
(dp595
S'fingerprint'
p596
S'OS:SCAN(V=7.01%E=4%D=12/20%OT=%CT=1%CU=42503%PV=N%DS=2%DC=I%G=N%TM=5A3A0B11\nOS:%P=x86_64-pc-linux-gnu)SEQ(CI=I)T5(R=Y%DF=Y%T=40%W=0%S=Z%A=S+%F=AR%O=%RD\nOS:=0%Q=)T6(R=Y%DF=Y%T=40%W=0%S=A%A=Z%F=R%O=%RD=0%Q=)T7(R=Y%DF=Y%T=40%W=0%S\nOS:=Z%A=S+%F=AR%O=%RD=0%Q=)U1(R=Y%DF=N%T=40%IPL=164%UN=0%RIPL=G%RID=G%RIPCK\nOS:=G%RUCK=G%RUD=G)IE(R=Y%DFI=N%T=40%CD=S)\n'
p597
sasg498
(lp598
ssS'times'
p599
(dp600
S'to'
p601
S'100000'
p602
sS'srtt'
p603
S'7447'
p604
sS'rttvar'
p605
S'6728'
p606
sssg18
(lp607
g2
(g173
g4
NtRp608
(dp609
g176
S''
sg132
I21
sg177
(lp610
sg179
S'no-response'
p611
sg130
(dp612
g474
S'filtered'
p613
sg480
g611
sS'reason_ttl'
p614
S'0'
ssg183
S'0'
sg184
S''
sg185
S''
sg186
S''
sg187
S'tcp'
p615
sg189
(dp616
S'scripts'
p617
(lp618
ssg193
(dp619
S'cpelist'
p620
(lp621
sg494
S'ftp'
p622
sS'conf'
p623
S'3'
sS'method'
p624
S'table'
p625
ssbag2
(g173
g4
NtRp626
(dp627
g176
S''
sg132
I1056
sg177
(lp628
sg179
S'no-response'
p629
sg130
(dp630
g474
S'filtered'
p631
sg480
g629
sg614
S'0'
ssg183
S'0'
sg184
S''
sg185
S''
sg186
S''
sg187
S'tcp'
p632
sg189
(dp633
g617
(lp634
ssg193
(dp635
g620
(lp636
sg494
S'vfo'
p637
sg623
S'3'
sg624
S'table'
p638
ssbag2
(g173
g4
NtRp639
(dp640
g176
S''
sg132
I1094
sg177
(lp641
sg179
S'no-response'
p642
sg130
(dp643
g474
S'filtered'
p644
sg480
g642
sg614
S'0'
ssg183
S'0'
sg184
S''
sg185
S''
sg186
S''
sg187
S'tcp'
p645
sg189
(dp646
g617
(lp647
ssg193
(dp648
g620
(lp649
sg494
S'rootd'
p650
sg623
S'3'
sg624
S'table'
p651
ssbag2
(g173
g4
NtRp652
(dp653
g176
S''
sg132
I1334
sg177
(lp654
sg179
S'no-response'
p655
sg130
(dp656
g474
S'filtered'
p657
sg480
g655
sg614
S'0'
ssg183
S'0'
sg184
S''
sg185
S''
sg186
S''
sg187
S'tcp'
p658
sg189
(dp659
g617
(lp660
ssg193
(dp661
g620
(lp662
sg494
S'writesrv'
p663
sg623
S'3'
sg624
S'table'
p664
ssbag2
(g173
g4
NtRp665
(dp666
g176
S''
sg132
I2038
sg177
(lp667
sg179
S'no-response'
p668
sg130
(dp669
g474
S'filtered'
p670
sg480
g668
sg614
S'0'
ssg183
S'0'
sg184
S''
sg185
S''
sg186
S''
sg187
S'tcp'
p671
sg189
(dp672
g617
(lp673
ssg193
(dp674
g620
(lp675
sg494
S'objectmanager'
p676
sg623
S'3'
sg624
S'table'
p677
ssbag2
(g173
g4
NtRp678
(dp679
g176
S''
sg132
I3007
sg177
(lp680
sg179
S'no-response'
p681
sg130
(dp682
g474
S'filtered'
p683
sg480
g681
sg614
S'0'
ssg183
S'0'
sg184
S''
sg185
S''
sg186
S''
sg187
S'tcp'
p684
sg189
(dp685
g617
(lp686
ssg193
(dp687
g620
(lp688
sg494
S'lotusmtap'
p689
sg623
S'3'
sg624
S'table'
p690
ssbag2
(g173
g4
NtRp691
(dp692
g176
S''
sg132
I3371
sg177
(lp693
sg179
S'no-response'
p694
sg130
(dp695
g474
S'filtered'
p696
sg480
g694
sg614
S'0'
ssg183
S'0'
sg184
S''
sg185
S''
sg186
S''
sg187
S'tcp'
p697
sg189
(dp698
g617
(lp699
ssg193
(dp700
g620
(lp701
sg494
S'satvid-datalnk'
p702
sg623
S'3'
sg624
S'table'
p703
ssbag2
(g173
g4
NtRp704
(dp705
g176
S''
sg132
I3784
sg177
(lp706
sg179
S'no-response'
p707
sg130
(dp708
g474
S'filtered'
p709
sg480
g707
sg614
S'0'
ssg183
S'0'
sg184
S''
sg185
S''
sg186
S''
sg187
S'tcp'
p710
sg189
(dp711
g617
(lp712
ssg193
(dp713
g620
(lp714
sg494
S'bfd-control'
p715
sg623
S'3'
sg624
S'table'
p716
ssbag2
(g173
g4
NtRp717
(dp718
g176
S''
sg132
I5901
sg177
(lp719
sg179
S'no-response'
p720
sg130
(dp721
g474
S'filtered'
p722
sg480
g720
sg614
S'0'
ssg183
S'0'
sg184
S''
sg185
S''
sg186
S''
sg187
S'tcp'
p723
sg189
(dp724
g617
(lp725
ssg193
(dp726
g620
(lp727
sg494
S'vnc-1'
p728
sg623
S'3'
sg624
S'table'
p729
ssbag2
(g173
g4
NtRp730
(dp731
g176
S''
sg132
I6779
sg177
(lp732
sg179
S'no-response'
p733
sg130
(dp734
g474
S'filtered'
p735
sg480
g733
sg614
S'0'
ssg183
S'0'
sg184
S''
sg185
S''
sg186
S''
sg187
S'tcp'
p736
sg189
(dp737
g617
(lp738
ssg193
(dp739
g620
(lp740
sg494
S'unknown'
p741
sg623
S'3'
sg624
S'table'
p742
ssbag2
(g173
g4
NtRp743
(dp744
g176
S''
sg132
I9010
sg177
(lp745
sg179
S'no-response'
p746
sg130
(dp747
g474
S'filtered'
p748
sg480
g746
sg614
S'0'
ssg183
S'0'
sg184
S''
sg185
S''
sg186
S''
sg187
S'tcp'
p749
sg189
(dp750
g617
(lp751
ssg193
(dp752
g620
(lp753
sg494
S'sdr'
p754
sg623
S'3'
sg624
S'table'
p755
ssbag2
(g173
g4
NtRp756
(dp757
g176
S''
sg132
I45100
sg177
(lp758
sg179
S'no-response'
p759
sg130
(dp760
g474
S'filtered'
p761
sg480
g759
sg614
S'0'
ssg183
S'0'
sg184
S''
sg185
S''
sg186
S''
sg187
S'tcp'
p762
sg189
(dp763
g617
(lp764
ssg193
(dp765
g620
(lp766
sg494
S'unknown'
p767
sg623
S'3'
sg624
S'table'
p768
ssbag2
(g173
g4
NtRp769
(dp770
g176
S''
sg132
I58080
sg177
(lp771
sg179
S'no-response'
p772
sg130
(dp773
g474
S'filtered'
p774
sg480
g772
sg614
S'0'
ssg183
S'0'
sg184
S''
sg185
S''
sg186
S''
sg187
S'tcp'
p775
sg189
(dp776
g617
(lp777
ssg193
(dp778
g620
(lp779
sg494
S'unknown'
p780
sg623
S'3'
sg624
S'table'
p781
ssbasg20
S'1513753324'
p782
sg21
S'1513753361'
p783
sg22
(lp784
sg24
Nsg25
g466
sg26
Nsg27
g466
sg28
(dp785
g474
S'up'
p786
sg480
S'user-set'
p787
sg614
S'0'
ssg35
g2
(g36
g4
NtRp788
(dp789
g39
(lp790
g597
asg41
(lp791
g2
(g354
g4
NtRp792
(dp793
g357
g493
sg358
g497
sg359
(lp794
g2
(g361
g4
NtRp795
(dp796
g364
g504
sg177
(lp797
sg358
g509
sg24
g508
sg385
g506
sg386
S''
sbag2
(g361
g4
NtRp798
(dp799
g364
g514
sg177
(lp800
g2
(g366
g4
NtRp801
(dp802
g369
(dp803
sg371
g521
sg372
(dp804
S'product'
p805
S'linux_kernel'
p806
sS'vendor'
p807
S'linux'
p808
sS'version'
p809
S'2.6.12'
p810
sS'language'
p811
S''
sg510
S'cpe'
p812
sS'update'
p813
S''
sS'edition'
p814
S''
sS'part'
p815
S'/o'
p816
ssbasg358
g519
sg24
g516
sg385
g515
sg386
g518
sbasg387
g495
sbag2
(g354
g4
NtRp817
(dp818
g357
g524
sg358
g526
sg359
(lp819
g2
(g361
g4
NtRp820
(dp821
g364
g530
sg177
(lp822
g2
(g366
g4
NtRp823
(dp824
g369
(dp825
sg371
g536
sg372
(dp826
g805
S'linux_kernel'
p827
sg807
S'linux'
p828
sg809
S'2.6'
p829
sg811
S''
sg510
S'cpe'
p830
sg813
S''
sg814
S''
sg815
S'/o'
p831
ssbasg358
g534
sg24
g532
sg385
g531
sg386
g533
sbasg387
g525
sbag2
(g354
g4
NtRp832
(dp833
g357
g539
sg358
g541
sg359
(lp834
g2
(g361
g4
NtRp835
(dp836
g364
g545
sg177
(lp837
g2
(g366
g4
NtRp838
(dp839
g369
(dp840
sg371
g551
sg372
(dp841
g805
S'linux_kernel'
p842
sg807
S'linux'
p843
sg809
S'2.6.17'
p844
sg811
S''
sg510
S'cpe'
p845
sg813
S''
sg814
S''
sg815
S'/o'
p846
ssbasg358
g549
sg24
g547
sg385
g546
sg386
g548
sbasg387
g540
sbag2
(g354
g4
NtRp847
(dp848
g357
g554
sg358
g556
sg359
(lp849
g2
(g361
g4
NtRp850
(dp851
g364
g560
sg177
(lp852
g2
(g366
g4
NtRp853
(dp854
g369
(dp855
sg371
g566
sg372
(dp856
g805
S'linux_kernel'
p857
sg807
S'linux'
p858
sg809
S'2.6.22'
p859
sg811
S''
sg510
S'cpe'
p860
sg813
S''
sg814
S''
sg815
S'/o'
p861
ssbasg358
g564
sg24
g562
sg385
g561
sg386
g563
sbasg387
g555
sbag2
(g354
g4
NtRp862
(dp863
g357
g569
sg358
g571
sg359
(lp864
g2
(g361
g4
NtRp865
(dp866
g364
g575
sg177
(lp867
g2
(g366
g4
NtRp868
(dp869
g369
(dp870
sg371
g581
sg372
(dp871
g805
S'linux_kernel'
p872
sg807
S'linux'
p873
sg809
S'2.6'
p874
sg811
S''
sg510
S'cpe'
p875
sg813
S''
sg814
S''
sg815
S'/o'
p876
ssbasg358
g579
sg24
g577
sg385
g576
sg386
g578
sbasg387
g570
sbasg43
(lp877
g2
(g127
g4
NtRp878
(dp879
g130
g585
sg131
g588
sg132
S'1'
sbag2
(g127
g4
NtRp880
(dp881
g130
g590
sg131
g592
sg132
g591
sbasbsba.