(lp1
ccopy_reg
_reconstructor
p2
(clibnmap.objects.host
NmapHost
p3
c__builtin__
object
p4
NtRp5
(dp6
S'_osfingerprinted'
p7
I01
sS'_address'
p8
(lp9
(dp10
S'addrtype'
p11
S'ipv4'
p12
sS'addr'
p13
S'160.39.10.67'
p14
sa(dp15
g11
S'mac'
p16
sS'vendor'
p17
S'Apple'
p18
sg13
S'68:64:4B:2E:64:0F'
p19
sasS'_ipv6_addr'
p20
NsS'_extras'
p21
(dp22
S'distance'
p23
(dp24
S'value'
p25
S'1'
ssS'uptime'
p26
(dp27
S'seconds'
p28
S'323780'
p29
sS'lastboot'
p30
S'Sat Dec  9 02:29:01 2017'
p31
ssS'times'
p32
(dp33
S'to'
p34
S'100000'
p35
sS'rttvar'
p36
S'12683'
p37
sS'srtt'
p38
S'15675'
p39
ssS'tcpsequence'
p40
(dp41
S'index'
p42
S'262'
p43
sS'values'
p44
S'D5F366D6,ECE4A5C0,EF18A878,5759D5CF,42F1EBEE,F8209EBE'
p45
sS'difficulty'
p46
S'Good luck!'
p47
ssS'tcptssequence'
p48
(dp49
g44
S'134C4607,134C4666,134C46CC,134C472B,134C4792,134C47EA'
p50
sS'class'
p51
S'1000HZ'
p52
ssS'extraports'
p53
(dp54
S'count'
p55
(dp56
S'count'
p57
S'950'
p58
sS'state'
p59
S'closed'
p60
ssS'reasons'
p61
(lp62
(dp63
g57
S'950'
p64
sS'reason'
p65
S'resets'
p66
sasS'state'
p67
g56
ssS'os'
p68
(dp69
S'osmatches'
p70
(lp71
(dp72
S'osmatch'
p73
(dp74
S'line'
p75
S'3669'
p76
sS'name'
p77
S'Apple iOS 5.0.1 - 5.1.1'
p78
sS'accuracy'
p79
S'100'
p80
ssS'osclasses'
p81
(lp82
(dp83
S'osclass'
p84
(dp85
g17
S'Apple'
p86
sS'osfamily'
p87
S'iOS'
p88
sS'type'
p89
S'media device'
p90
sS'osgen'
p91
S'5.X'
p92
sg79
S'100'
p93
ssS'cpe'
p94
(lp95
S'cpe:/o:apple:iphone_os:5'
p96
asasasS'ports_used'
p97
(lp98
(dp99
g59
S'open'
p100
sS'portid'
p101
S'3689'
p102
sS'proto'
p103
S'tcp'
p104
sa(dp105
g59
S'closed'
p106
sg101
S'1'
sg103
S'tcp'
p107
sa(dp108
g59
S'closed'
p109
sg101
S'43181'
p110
sg103
S'udp'
p111
sasg81
(lp112
sS'osfingerprints'
p113
(lp114
(dp115
S'fingerprint'
p116
S'OS:SCAN(V=7.01%E=4%D=12/12%OT=3689%CT=1%CU=43181%PV=N%DS=1%DC=D%G=Y%M=68644\nOS:B%TM=5A308181%P=x86_64-pc-linux-gnu)SEQ(SP=106%GCD=1%ISR=106%TI=RD%CI=RD\nOS:%TS=A)OPS(O1=M56ANW4NNT11SLL%O2=M56ANW4NNT11SLL%O3=M56ANW4NNT11%O4=M56AN\nOS:W4NNT11SLL%O5=M56ANW4NNT11SLL%O6=M56ANNT11SLL)WIN(W1=FFFF%W2=FFFF%W3=FFF\nOS:F%W4=FFFF%W5=FFFF%W6=FFFF)ECN(R=Y%DF=Y%T=40%W=FFFF%O=M56ANW4SLL%CC=N%Q=)\nOS:T1(R=Y%DF=Y%T=40%S=O%A=S+%F=AS%RD=0%Q=)T2(R=N)T3(R=N)T4(R=Y%DF=Y%T=40%W=\nOS:0%S=A%A=Z%F=R%O=%RD=0%Q=)T5(R=Y%DF=N%T=40%W=0%S=Z%A=S+%F=AR%O=%RD=0%Q=)T\nOS:6(R=Y%DF=Y%T=40%W=0%S=A%A=Z%F=R%O=%RD=0%Q=)T7(R=Y%DF=N%T=40%W=0%S=Z%A=S%\nOS:F=AR%O=%RD=0%Q=)U1(R=Y%DF=N%T=40%IPL=38%UN=0%RIPL=G%RID=G%RIPCK=G%RUCK=0\nOS:%RUD=G)IE(R=Y%DFI=S%T=40%CD=S)\n'
p117
sassS'ipidsequence'
p118
(dp119
g44
S'4C83,69D7,BAC8,9E36,77B2,95B4'
p120
sg51
S'Randomized'
p121
sssS'_services'
p122
(lp123
g2
(clibnmap.objects.service
NmapService
p124
g4
NtRp125
(dp126
S'_tunnel'
p127
S''
sS'_portid'
p128
I21
sS'_cpelist'
p129
(lp130
sS'_reason'
p131
S'no-response'
p132
sS'_state'
p133
(dp134
g59
S'filtered'
p135
sg65
g132
sS'reason_ttl'
p136
S'0'
ssS'_reason_ttl'
p137
S'0'
sS'_owner'
p138
S''
sS'_reason_ip'
p139
S''
sS'_servicefp'
p140
S''
sS'_protocol'
p141
S'tcp'
p142
sS'_service_extras'
p143
(dp144
S'scripts'
p145
(lp146
ssS'_service'
p147
(dp148
S'method'
p149
S'table'
p150
sS'cpelist'
p151
(lp152
sS'conf'
p153
S'3'
sg77
S'ftp'
p154
ssbag2
(g124
g4
NtRp155
(dp156
g127
S''
sg128
I81
sg129
(lp157
sg131
S'no-response'
p158
sg133
(dp159
g59
S'filtered'
p160
sg65
g158
sg136
S'0'
ssg137
S'0'
sg138
S''
sg139
S''
sg140
S''
sg141
S'tcp'
p161
sg143
(dp162
g145
(lp163
ssg147
(dp164
g149
S'table'
p165
sg151
(lp166
sg153
S'3'
sg77
S'hosts2-ns'
p167
ssbag2
(g124
g4
NtRp168
(dp169
g127
S''
sg128
I144
sg129
(lp170
sg131
S'no-response'
p171
sg133
(dp172
g59
S'filtered'
p173
sg65
g171
sg136
S'0'
ssg137
S'0'
sg138
S''
sg139
S''
sg140
S''
sg141
S'tcp'
p174
sg143
(dp175
g145
(lp176
ssg147
(dp177
g149
S'table'
p178
sg151
(lp179
sg153
S'3'
sg77
S'news'
p180
ssbag2
(g124
g4
NtRp181
(dp182
g127
S''
sg128
I406
sg129
(lp183
sg131
S'no-response'
p184
sg133
(dp185
g59
S'filtered'
p186
sg65
g184
sg136
S'0'
ssg137
S'0'
sg138
S''
sg139
S''
sg140
S''
sg141
S'tcp'
p187
sg143
(dp188
g145
(lp189
ssg147
(dp190
g149
S'table'
p191
sg151
(lp192
sg153
S'3'
sg77
S'imsp'
p193
ssbag2
(g124
g4
NtRp194
(dp195
g127
S''
sg128
I617
sg129
(lp196
sg131
S'no-response'
p197
sg133
(dp198
g59
S'filtered'
p199
sg65
g197
sg136
S'0'
ssg137
S'0'
sg138
S''
sg139
S''
sg140
S''
sg141
S'tcp'
p200
sg143
(dp201
g145
(lp202
ssg147
(dp203
g149
S'table'
p204
sg151
(lp205
sg153
S'3'
sg77
S'sco-dtmgr'
p206
ssbag2
(g124
g4
NtRp207
(dp208
g127
S''
sg128
I667
sg129
(lp209
sg131
S'no-response'
p210
sg133
(dp211
g59
S'filtered'
p212
sg65
g210
sg136
S'0'
ssg137
S'0'
sg138
S''
sg139
S''
sg140
S''
sg141
S'tcp'
p213
sg143
(dp214
g145
(lp215
ssg147
(dp216
g149
S'table'
p217
sg151
(lp218
sg153
S'3'
sg77
S'disclose'
p219
ssbag2
(g124
g4
NtRp220
(dp221
g127
S''
sg128
I726
sg129
(lp222
sg131
S'no-response'
p223
sg133
(dp224
g59
S'filtered'
p225
sg65
g223
sg136
S'0'
ssg137
S'0'
sg138
S''
sg139
S''
sg140
S''
sg141
S'tcp'
p226
sg143
(dp227
g145
(lp228
ssg147
(dp229
g149
S'table'
p230
sg151
(lp231
sg153
S'3'
sg77
S'unknown'
p232
ssbag2
(g124
g4
NtRp233
(dp234
g127
S''
sg128
I1009
sg129
(lp235
sg131
S'no-response'
p236
sg133
(dp237
g59
S'filtered'
p238
sg65
g236
sg136
S'0'
ssg137
S'0'
sg138
S''
sg139
S''
sg140
S''
sg141
S'tcp'
p239
sg143
(dp240
g145
(lp241
ssg147
(dp242
g149
S'table'
p243
sg151
(lp244
sg153
S'3'
sg77
S'unknown'
p245
ssbag2
(g124
g4
NtRp246
(dp247
g127
S''
sg128
I1027
sg129
(lp248
sg131
S'no-response'
p249
sg133
(dp250
g59
S'filtered'
p251
sg65
g249
sg136
S'0'
ssg137
S'0'
sg138
S''
sg139
S''
sg140
S''
sg141
S'tcp'
p252
sg143
(dp253
g145
(lp254
ssg147
(dp255
g149
S'table'
p256
sg151
(lp257
sg153
S'3'
sg77
S'IIS'
p258
ssbag2
(g124
g4
NtRp259
(dp260
g127
S''
sg128
I1043
sg129
(lp261
sg131
S'no-response'
p262
sg133
(dp263
g59
S'filtered'
p264
sg65
g262
sg136
S'0'
ssg137
S'0'
sg138
S''
sg139
S''
sg140
S''
sg141
S'tcp'
p265
sg143
(dp266
g145
(lp267
ssg147
(dp268
g149
S'table'
p269
sg151
(lp270
sg153
S'3'
sg77
S'boinc'
p271
ssbag2
(g124
g4
NtRp272
(dp273
g127
S''
sg128
I1147
sg129
(lp274
sg131
S'no-response'
p275
sg133
(dp276
g59
S'filtered'
p277
sg65
g275
sg136
S'0'
ssg137
S'0'
sg138
S''
sg139
S''
sg140
S''
sg141
S'tcp'
p278
sg143
(dp279
g145
(lp280
ssg147
(dp281
g149
S'table'
p282
sg151
(lp283
sg153
S'3'
sg77
S'capioverlan'
p284
ssbag2
(g124
g4
NtRp285
(dp286
g127
S''
sg128
I1154
sg129
(lp287
sg131
S'no-response'
p288
sg133
(dp289
g59
S'filtered'
p290
sg65
g288
sg136
S'0'
ssg137
S'0'
sg138
S''
sg139
S''
sg140
S''
sg141
S'tcp'
p291
sg143
(dp292
g145
(lp293
ssg147
(dp294
g149
S'table'
p295
sg151
(lp296
sg153
S'3'
sg77
S'resacommunity'
p297
ssbag2
(g124
g4
NtRp298
(dp299
g127
S''
sg128
I2068
sg129
(lp300
sg131
S'no-response'
p301
sg133
(dp302
g59
S'filtered'
p303
sg65
g301
sg136
S'0'
ssg137
S'0'
sg138
S''
sg139
S''
sg140
S''
sg141
S'tcp'
p304
sg143
(dp305
g145
(lp306
ssg147
(dp307
g149
S'table'
p308
sg151
(lp309
sg153
S'3'
sg77
S'avocentkvm'
p310
ssbag2
(g124
g4
NtRp311
(dp312
g127
S''
sg128
I2869
sg129
(lp313
sg131
S'no-response'
p314
sg133
(dp315
g59
S'filtered'
p316
sg65
g314
sg136
S'0'
ssg137
S'0'
sg138
S''
sg139
S''
sg140
S''
sg141
S'tcp'
p317
sg143
(dp318
g145
(lp319
ssg147
(dp320
g149
S'table'
p321
sg151
(lp322
sg153
S'3'
sg77
S'icslap'
p323
ssbag2
(g124
g4
NtRp324
(dp325
g127
S''
sg128
I3000
sg129
(lp326
sg131
S'no-response'
p327
sg133
(dp328
g59
S'filtered'
p329
sg65
g327
sg136
S'0'
ssg137
S'0'
sg138
S''
sg139
S''
sg140
S''
sg141
S'tcp'
p330
sg143
(dp331
g145
(lp332
ssg147
(dp333
g149
S'table'
p334
sg151
(lp335
sg153
S'3'
sg77
S'ppp'
p336
ssbag2
(g124
g4
NtRp337
(dp338
g127
S''
sg128
I3689
sg129
(lp339
sg131
S'syn-ack'
p340
sg133
(dp341
g59
S'open'
p342
sg65
g340
sg136
S'64'
p343
ssg137
g343
sg138
S''
sg139
S''
sg140
S''
sg141
S'tcp'
p344
sg143
(dp345
g145
(lp346
ssg147
(dp347
g149
S'table'
p348
sg151
(lp349
sg153
S'3'
sg77
S'rendezvous'
p350
ssbag2
(g124
g4
NtRp351
(dp352
g127
S''
sg128
I3809
sg129
(lp353
sg131
S'no-response'
p354
sg133
(dp355
g59
S'filtered'
p356
sg65
g354
sg136
S'0'
ssg137
S'0'
sg138
S''
sg139
S''
sg140
S''
sg141
S'tcp'
p357
sg143
(dp358
g145
(lp359
ssg147
(dp360
g149
S'table'
p361
sg151
(lp362
sg153
S'3'
sg77
S'apocd'
p363
ssbag2
(g124
g4
NtRp364
(dp365
g127
S''
sg128
I3914
sg129
(lp366
sg131
S'no-response'
p367
sg133
(dp368
g59
S'filtered'
p369
sg65
g367
sg136
S'0'
ssg137
S'0'
sg138
S''
sg139
S''
sg140
S''
sg141
S'tcp'
p370
sg143
(dp371
g145
(lp372
ssg147
(dp373
g149
S'table'
p374
sg151
(lp375
sg153
S'3'
sg77
S'listcrt-port-2'
p376
ssbag2
(g124
g4
NtRp377
(dp378
g127
S''
sg128
I3945
sg129
(lp379
sg131
S'no-response'
p380
sg133
(dp381
g59
S'filtered'
p382
sg65
g380
sg136
S'0'
ssg137
S'0'
sg138
S''
sg139
S''
sg140
S''
sg141
S'tcp'
p383
sg143
(dp384
g145
(lp385
ssg147
(dp386
g149
S'table'
p387
sg151
(lp388
sg153
S'3'
sg77
S'emcads'
p389
ssbag2
(g124
g4
NtRp390
(dp391
g127
S''
sg128
I4003
sg129
(lp392
sg131
S'no-response'
p393
sg133
(dp394
g59
S'filtered'
p395
sg65
g393
sg136
S'0'
ssg137
S'0'
sg138
S''
sg139
S''
sg140
S''
sg141
S'tcp'
p396
sg143
(dp397
g145
(lp398
ssg147
(dp399
g149
S'table'
p400
sg151
(lp401
sg153
S'3'
sg77
S'pxc-splr-ft'
p402
ssbag2
(g124
g4
NtRp403
(dp404
g127
S''
sg128
I5000
sg129
(lp405
sg131
S'syn-ack'
p406
sg133
(dp407
g59
S'open'
p408
sg65
g406
sg136
S'64'
p409
ssg137
g409
sg138
S''
sg139
S''
sg140
S''
sg141
S'tcp'
p410
sg143
(dp411
g145
(lp412
ssg147
(dp413
g149
S'table'
p414
sg151
(lp415
sg153
S'3'
sg77
S'upnp'
p416
ssbag2
(g124
g4
NtRp417
(dp418
g127
S''
sg128
I5004
sg129
(lp419
sg131
S'no-response'
p420
sg133
(dp421
g59
S'filtered'
p422
sg65
g420
sg136
S'0'
ssg137
S'0'
sg138
S''
sg139
S''
sg140
S''
sg141
S'tcp'
p423
sg143
(dp424
g145
(lp425
ssg147
(dp426
g149
S'table'
p427
sg151
(lp428
sg153
S'3'
sg77
S'avt-profile-1'
p429
ssbag2
(g124
g4
NtRp430
(dp431
g127
S''
sg128
I5718
sg129
(lp432
sg131
S'no-response'
p433
sg133
(dp434
g59
S'filtered'
p435
sg65
g433
sg136
S'0'
ssg137
S'0'
sg138
S''
sg139
S''
sg140
S''
sg141
S'tcp'
p436
sg143
(dp437
g145
(lp438
ssg147
(dp439
g149
S'table'
p440
sg151
(lp441
sg153
S'3'
sg77
S'dpm'
p442
ssbag2
(g124
g4
NtRp443
(dp444
g127
S''
sg128
I5730
sg129
(lp445
sg131
S'no-response'
p446
sg133
(dp447
g59
S'filtered'
p448
sg65
g446
sg136
S'0'
ssg137
S'0'
sg138
S''
sg139
S''
sg140
S''
sg141
S'tcp'
p449
sg143
(dp450
g145
(lp451
ssg147
(dp452
g149
S'table'
p453
sg151
(lp454
sg153
S'3'
sg77
S'unieng'
p455
ssbag2
(g124
g4
NtRp456
(dp457
g127
S''
sg128
I5810
sg129
(lp458
sg131
S'no-response'
p459
sg133
(dp460
g59
S'filtered'
p461
sg65
g459
sg136
S'0'
ssg137
S'0'
sg138
S''
sg139
S''
sg140
S''
sg141
S'tcp'
p462
sg143
(dp463
g145
(lp464
ssg147
(dp465
g149
S'table'
p466
sg151
(lp467
sg153
S'3'
sg77
S'unknown'
p468
ssbag2
(g124
g4
NtRp469
(dp470
g127
S''
sg128
I5850
sg129
(lp471
sg131
S'no-response'
p472
sg133
(dp473
g59
S'filtered'
p474
sg65
g472
sg136
S'0'
ssg137
S'0'
sg138
S''
sg139
S''
sg140
S''
sg141
S'tcp'
p475
sg143
(dp476
g145
(lp477
ssg147
(dp478
g149
S'table'
p479
sg151
(lp480
sg153
S'3'
sg77
S'unknown'
p481
ssbag2
(g124
g4
NtRp482
(dp483
g127
S''
sg128
I5910
sg129
(lp484
sg131
S'no-response'
p485
sg133
(dp486
g59
S'filtered'
p487
sg65
g485
sg136
S'0'
ssg137
S'0'
sg138
S''
sg139
S''
sg140
S''
sg141
S'tcp'
p488
sg143
(dp489
g145
(lp490
ssg147
(dp491
g149
S'table'
p492
sg151
(lp493
sg153
S'3'
sg77
S'cm'
p494
ssbag2
(g124
g4
NtRp495
(dp496
g127
S''
sg128
I6543
sg129
(lp497
sg131
S'no-response'
p498
sg133
(dp499
g59
S'filtered'
p500
sg65
g498
sg136
S'0'
ssg137
S'0'
sg138
S''
sg139
S''
sg140
S''
sg141
S'tcp'
p501
sg143
(dp502
g145
(lp503
ssg147
(dp504
g149
S'table'
p505
sg151
(lp506
sg153
S'3'
sg77
S'mythtv'
p507
ssbag2
(g124
g4
NtRp508
(dp509
g127
S''
sg128
I6699
sg129
(lp510
sg131
S'no-response'
p511
sg133
(dp512
g59
S'filtered'
p513
sg65
g511
sg136
S'0'
ssg137
S'0'
sg138
S''
sg139
S''
sg140
S''
sg141
S'tcp'
p514
sg143
(dp515
g145
(lp516
ssg147
(dp517
g149
S'table'
p518
sg151
(lp519
sg153
S'3'
sg77
S'napster'
p520
ssbag2
(g124
g4
NtRp521
(dp522
g127
S''
sg128
I6789
sg129
(lp523
sg131
S'no-response'
p524
sg133
(dp525
g59
S'filtered'
p526
sg65
g524
sg136
S'0'
ssg137
S'0'
sg138
S''
sg139
S''
sg140
S''
sg141
S'tcp'
p527
sg143
(dp528
g145
(lp529
ssg147
(dp530
g149
S'table'
p531
sg151
(lp532
sg153
S'3'
sg77
S'ibm-db2-admin'
p533
ssbag2
(g124
g4
NtRp534
(dp535
g127
S''
sg128
I7000
sg129
(lp536
sg131
S'syn-ack'
p537
sg133
(dp538
g59
S'open'
p539
sg65
g537
sg136
S'64'
p540
ssg137
g540
sg138
S''
sg139
S''
sg140
S''
sg141
S'tcp'
p541
sg143
(dp542
g145
(lp543
ssg147
(dp544
g149
S'table'
p545
sg151
(lp546
sg153
S'3'
sg77
S'afs3-fileserver'
p547
ssbag2
(g124
g4
NtRp548
(dp549
g127
S''
sg128
I7100
sg129
(lp550
sg131
S'syn-ack'
p551
sg133
(dp552
g59
S'open'
p553
sg65
g551
sg136
S'64'
p554
ssg137
g554
sg138
S''
sg139
S''
sg140
S''
sg141
S'tcp'
p555
sg143
(dp556
g145
(lp557
ssg147
(dp558
g149
S'table'
p559
sg151
(lp560
sg153
S'3'
sg77
S'font-service'
p561
ssbag2
(g124
g4
NtRp562
(dp563
g127
S''
sg128
I7937
sg129
(lp564
sg131
S'no-response'
p565
sg133
(dp566
g59
S'filtered'
p567
sg65
g565
sg136
S'0'
ssg137
S'0'
sg138
S''
sg139
S''
sg140
S''
sg141
S'tcp'
p568
sg143
(dp569
g145
(lp570
ssg147
(dp571
g149
S'table'
p572
sg151
(lp573
sg153
S'3'
sg77
S'nsrexecd'
p574
ssbag2
(g124
g4
NtRp575
(dp576
g127
S''
sg128
I8654
sg129
(lp577
sg131
S'no-response'
p578
sg133
(dp579
g59
S'filtered'
p580
sg65
g578
sg136
S'0'
ssg137
S'0'
sg138
S''
sg139
S''
sg140
S''
sg141
S'tcp'
p581
sg143
(dp582
g145
(lp583
ssg147
(dp584
g149
S'table'
p585
sg151
(lp586
sg153
S'3'
sg77
S'unknown'
p587
ssbag2
(g124
g4
NtRp588
(dp589
g127
S''
sg128
I9898
sg129
(lp590
sg131
S'no-response'
p591
sg133
(dp592
g59
S'filtered'
p593
sg65
g591
sg136
S'0'
ssg137
S'0'
sg138
S''
sg139
S''
sg140
S''
sg141
S'tcp'
p594
sg143
(dp595
g145
(lp596
ssg147
(dp597
g149
S'table'
p598
sg151
(lp599
sg153
S'3'
sg77
S'monkeycom'
p600
ssbag2
(g124
g4
NtRp601
(dp602
g127
S''
sg128
I9900
sg129
(lp603
sg131
S'no-response'
p604
sg133
(dp605
g59
S'filtered'
p606
sg65
g604
sg136
S'0'
ssg137
S'0'
sg138
S''
sg139
S''
sg140
S''
sg141
S'tcp'
p607
sg143
(dp608
g145
(lp609
ssg147
(dp610
g149
S'table'
p611
sg151
(lp612
sg153
S'3'
sg77
S'iua'
p613
ssbag2
(g124
g4
NtRp614
(dp615
g127
S''
sg128
I10001
sg129
(lp616
sg131
S'no-response'
p617
sg133
(dp618
g59
S'filtered'
p619
sg65
g617
sg136
S'0'
ssg137
S'0'
sg138
S''
sg139
S''
sg140
S''
sg141
S'tcp'
p620
sg143
(dp621
g145
(lp622
ssg147
(dp623
g149
S'table'
p624
sg151
(lp625
sg153
S'3'
sg77
S'scp-config'
p626
ssbag2
(g124
g4
NtRp627
(dp628
g127
S''
sg128
I10566
sg129
(lp629
sg131
S'no-response'
p630
sg133
(dp631
g59
S'filtered'
p632
sg65
g630
sg136
S'0'
ssg137
S'0'
sg138
S''
sg139
S''
sg140
S''
sg141
S'tcp'
p633
sg143
(dp634
g145
(lp635
ssg147
(dp636
g149
S'table'
p637
sg151
(lp638
sg153
S'3'
sg77
S'unknown'
p639
ssbag2
(g124
g4
NtRp640
(dp641
g127
S''
sg128
I11110
sg129
(lp642
sg131
S'no-response'
p643
sg133
(dp644
g59
S'filtered'
p645
sg65
g643
sg136
S'0'
ssg137
S'0'
sg138
S''
sg139
S''
sg140
S''
sg141
S'tcp'
p646
sg143
(dp647
g145
(lp648
ssg147
(dp649
g149
S'table'
p650
sg151
(lp651
sg153
S'3'
sg77
S'unknown'
p652
ssbag2
(g124
g4
NtRp653
(dp654
g127
S''
sg128
I13456
sg129
(lp655
sg131
S'no-response'
p656
sg133
(dp657
g59
S'filtered'
p658
sg65
g656
sg136
S'0'
ssg137
S'0'
sg138
S''
sg139
S''
sg140
S''
sg141
S'tcp'
p659
sg143
(dp660
g145
(lp661
ssg147
(dp662
g149
S'table'
p663
sg151
(lp664
sg153
S'3'
sg77
S'unknown'
p665
ssbag2
(g124
g4
NtRp666
(dp667
g127
S''
sg128
I15000
sg129
(lp668
sg131
S'no-response'
p669
sg133
(dp670
g59
S'filtered'
p671
sg65
g669
sg136
S'0'
ssg137
S'0'
sg138
S''
sg139
S''
sg140
S''
sg141
S'tcp'
p672
sg143
(dp673
g145
(lp674
ssg147
(dp675
g149
S'table'
p676
sg151
(lp677
sg153
S'3'
sg77
S'hydap'
p678
ssbag2
(g124
g4
NtRp679
(dp680
g127
S''
sg128
I25734
sg129
(lp681
sg131
S'no-response'
p682
sg133
(dp683
g59
S'filtered'
p684
sg65
g682
sg136
S'0'
ssg137
S'0'
sg138
S''
sg139
S''
sg140
S''
sg141
S'tcp'
p685
sg143
(dp686
g145
(lp687
ssg147
(dp688
g149
S'table'
p689
sg151
(lp690
sg153
S'3'
sg77
S'unknown'
p691
ssbag2
(g124
g4
NtRp692
(dp693
g127
S''
sg128
I26214
sg129
(lp694
sg131
S'no-response'
p695
sg133
(dp696
g59
S'filtered'
p697
sg65
g695
sg136
S'0'
ssg137
S'0'
sg138
S''
sg139
S''
sg140
S''
sg141
S'tcp'
p698
sg143
(dp699
g145
(lp700
ssg147
(dp701
g149
S'table'
p702
sg151
(lp703
sg153
S'3'
sg77
S'unknown'
p704
ssbag2
(g124
g4
NtRp705
(dp706
g127
S''
sg128
I27353
sg129
(lp707
sg131
S'no-response'
p708
sg133
(dp709
g59
S'filtered'
p710
sg65
g708
sg136
S'0'
ssg137
S'0'
sg138
S''
sg139
S''
sg140
S''
sg141
S'tcp'
p711
sg143
(dp712
g145
(lp713
ssg147
(dp714
g149
S'table'
p715
sg151
(lp716
sg153
S'3'
sg77
S'unknown'
p717
ssbag2
(g124
g4
NtRp718
(dp719
g127
S''
sg128
I32782
sg129
(lp720
sg131
S'no-response'
p721
sg133
(dp722
g59
S'filtered'
p723
sg65
g721
sg136
S'0'
ssg137
S'0'
sg138
S''
sg139
S''
sg140
S''
sg141
S'tcp'
p724
sg143
(dp725
g145
(lp726
ssg147
(dp727
g149
S'table'
p728
sg151
(lp729
sg153
S'3'
sg77
S'unknown'
p730
ssbag2
(g124
g4
NtRp731
(dp732
g127
S''
sg128
I33899
sg129
(lp733
sg131
S'no-response'
p734
sg133
(dp735
g59
S'filtered'
p736
sg65
g734
sg136
S'0'
ssg137
S'0'
sg138
S''
sg139
S''
sg140
S''
sg141
S'tcp'
p737
sg143
(dp738
g145
(lp739
ssg147
(dp740
g149
S'table'
p741
sg151
(lp742
sg153
S'3'
sg77
S'unknown'
p743
ssbag2
(g124
g4
NtRp744
(dp745
g127
S''
sg128
I49153
sg129
(lp746
sg131
S'no-response'
p747
sg133
(dp748
g59
S'filtered'
p749
sg65
g747
sg136
S'0'
ssg137
S'0'
sg138
S''
sg139
S''
sg140
S''
sg141
S'tcp'
p750
sg143
(dp751
g145
(lp752
ssg147
(dp753
g149
S'table'
p754
sg151
(lp755
sg153
S'3'
sg77
S'unknown'
p756
ssbag2
(g124
g4
NtRp757
(dp758
g127
S''
sg128
I49157
sg129
(lp759
sg131
S'no-response'
p760
sg133
(dp761
g59
S'filtered'
p762
sg65
g760
sg136
S'0'
ssg137
S'0'
sg138
S''
sg139
S''
sg140
S''
sg141
S'tcp'
p763
sg143
(dp764
g145
(lp765
ssg147
(dp766
g149
S'table'
p767
sg151
(lp768
sg153
S'3'
sg77
S'unknown'
p769
ssbag2
(g124
g4
NtRp770
(dp771
g127
S''
sg128
I50636
sg129
(lp772
sg131
S'no-response'
p773
sg133
(dp774
g59
S'filtered'
p775
sg65
g773
sg136
S'0'
ssg137
S'0'
sg138
S''
sg139
S''
sg140
S''
sg141
S'tcp'
p776
sg143
(dp777
g145
(lp778
ssg147
(dp779
g149
S'table'
p780
sg151
(lp781
sg153
S'3'
sg77
S'unknown'
p782
ssbag2
(g124
g4
NtRp783
(dp784
g127
S''
sg128
I62078
sg129
(lp785
sg131
S'syn-ack'
p786
sg133
(dp787
g59
S'open'
p788
sg65
g786
sg136
S'64'
p789
ssg137
g789
sg138
S''
sg139
S''
sg140
S''
sg141
S'tcp'
p790
sg143
(dp791
g145
(lp792
ssg147
(dp793
g149
S'table'
p794
sg151
(lp795
sg153
S'3'
sg77
S'iphone-sync'
p796
ssbasS'_starttime'
p797
S'1513128233'
p798
sS'_endtime'
p799
S'1513128308'
p800
sS'_hostnames'
p801
(lp802
sS'_vendor'
p803
g18
sS'_ipv4_addr'
p804
g14
sS'_mac_addr'
p805
g19
sS'_main_address'
p806
g14
sS'_status'
p807
(dp808
g59
S'up'
p809
sg65
S'arp-response'
p810
sg136
S'0'
ssS'os'
p811
g2
(clibnmap.objects.os
NmapOSFingerprint
p812
g4
NtRp813
(dp814
S'_NmapOSFingerprint__fingerprints'
p815
(lp816
g117
asS'_NmapOSFingerprint__osmatches'
p817
(lp818
g2
(clibnmap.objects.os
NmapOSMatch
p819
g4
NtRp820
(dp821
S'_line'
p822
g76
sS'_accuracy'
p823
g80
sS'_osclasses'
p824
(lp825
g2
(clibnmap.objects.os
NmapOSClass
p826
g4
NtRp827
(dp828
S'_type'
p829
g90
sg129
(lp830
g2
(clibnmap.objects.cpe
CPE
p831
g4
NtRp832
(dp833
S'cpedict'
p834
(dp835
sS'_cpestring'
p836
g96
sS'_cpedict'
p837
(dp838
S'product'
p839
S'iphone_os'
p840
sS'vendor'
p841
S'apple'
p842
sS'language'
p843
S''
sg94
S'cpe'
p844
sS'update'
p845
S''
sS'edition'
p846
S''
sS'version'
p847
S'5'
sS'part'
p848
S'/o'
p849
ssbasg823
g93
sg803
g86
sS'_osfamily'
p850
g88
sS'_osgen'
p851
g92
sbasS'_name'
p852
g78
sbasS'_NmapOSFingerprint__ports_used'
p853
(lp854
g2
(clibnmap.objects.os
OSFPPortUsed
p855
g4
NtRp856
(dp857
g133
g100
sS'_proto'
p858
g104
sg128
g102
sbag2
(g855
g4
NtRp859
(dp860
g133
g106
sg858
g107
sg128
S'1'
sbag2
(g855
g4
NtRp861
(dp862
g133
g109
sg858
g111
sg128
g110
sbasbsbag2
(g3
g4
NtRp863
(dp864
g7
I01
sg8
(lp865
(dp866
g11
S'ipv4'
p867
sg13
S'160.39.10.68'
p868
sa(dp869
g11
S'mac'
p870
sg17
S'Apple'
p871
sg13
S'48:D7:05:E5:C3:E5'
p872
sasg20
Nsg21
(dp873
g23
(dp874
g25
S'1'
ssg26
(dp875
g28
S'1427142'
p876
sg30
S'Sun Nov 26 07:59:39 2017'
p877
ssg32
(dp878
g34
S'100000'
p879
sg36
S'2432'
p880
sg38
S'4075'
p881
ssg40
(dp882
g42
S'263'
p883
sg44
S'CFC157B0,7249C3D8,854D513C,F090B77E,880C44D1,793EE2CF'
p884
sg46
S'Good luck!'
p885
ssg48
(dp886
g44
S'55106F11,55106F37,55106F89,55106FEB,5510704E,551070B0'
p887
sg51
S'1000HZ'
p888
ssg53
(dp889
g55
(dp890
g57
S'998'
p891
sg59
S'closed'
p892
ssg61
(lp893
(dp894
g57
S'998'
p895
sg65
S'resets'
p896
sasg67
g890
ssg68
(dp897
g70
(lp898
(dp899
g73
(dp900
g75
S'6879'
p901
sg77
S'Apple Mac OS X 10.9 (Mavericks) (Darwin 13.0.0)'
p902
sg79
S'97'
p903
ssg81
(lp904
(dp905
g84
(dp906
g17
S'Apple'
p907
sg87
S'Mac OS X'
p908
sg89
S'general purpose'
p909
sg91
S'10.9.X'
p910
sg79
S'97'
p911
ssg94
(lp912
S'cpe:/o:apple:mac_os_x:10.9'
p913
asasa(dp914
g73
(dp915
g75
S'3088'
p916
sg77
S'Apple TV 5.2.1 or 5.3'
p917
sg79
S'96'
p918
ssg81
(lp919
(dp920
g84
(dp921
g17
S'Apple'
p922
sg87
S'Apple TV'
p923
sg89
S'media device'
p924
sg91
S'5.X'
p925
sg79
S'96'
p926
ssg94
(lp927
S'cpe:/a:apple:apple_tv:5.2.1'
p928
aS'cpe:/a:apple:apple_tv:5.3'
p929
asasa(dp930
g73
(dp931
g75
S'3669'
p932
sg77
S'Apple iOS 5.0.1 - 5.1.1'
p933
sg79
S'96'
p934
ssg81
(lp935
(dp936
g84
(dp937
g17
S'Apple'
p938
sg87
S'iOS'
p939
sg89
S'media device'
p940
sg91
S'5.X'
p941
sg79
S'96'
p942
ssg94
(lp943
S'cpe:/o:apple:iphone_os:5'
p944
asasa(dp945
g73
(dp946
g75
S'3629'
p947
sg77
S'Apple iOS 5.0.1'
p948
sg79
S'95'
p949
ssg81
(lp950
(dp951
g84
(dp952
g17
S'Apple'
p953
sg87
S'iOS'
p954
sg89
S'media device'
p955
sg91
S'5.X'
p956
sg79
S'95'
p957
ssg94
(lp958
S'cpe:/o:apple:iphone_os:5.0.1'
p959
asa(dp960
g84
(dp961
g17
S'Apple'
p962
sg87
S'iOS'
p963
sg89
S'phone'
p964
sg91
S'5.X'
p965
sg79
S'95'
p966
ssg94
(lp967
S'cpe:/o:apple:iphone_os:5.0.1'
p968
asasa(dp969
g73
(dp970
g75
S'3794'
p971
sg77
S'Apple iOS 6.0.1'
p972
sg79
S'95'
p973
ssg81
(lp974
(dp975
g84
(dp976
g17
S'Apple'
p977
sg87
S'iOS'
p978
sg89
S'phone'
p979
sg91
S'6.X'
p980
sg79
S'95'
p981
ssg94
(lp982
S'cpe:/o:apple:iphone_os:6.0.1'
p983
asasa(dp984
g73
(dp985
g75
S'3830'
p986
sg77
S'Apple iOS 6.1.4 (Darwin 13.0.0)'
p987
sg79
S'95'
p988
ssg81
(lp989
(dp990
g84
(dp991
g17
S'Apple'
p992
sg87
S'iOS'
p993
sg89
S'phone'
p994
sg91
S'6.X'
p995
sg79
S'95'
p996
ssg94
(lp997
S'cpe:/o:apple:iphone_os:6.1.4'
p998
asasa(dp999
g73
(dp1000
g75
S'4752'
p1001
sg77
S'Apple Mac OS X 10.10.2 (Darwin 14.1.0)'
p1002
sg79
S'95'
p1003
ssg81
(lp1004
(dp1005
g84
(dp1006
g17
S'Apple'
p1007
sg87
S'Mac OS X'
p1008
sg89
S'general purpose'
p1009
sg91
S'10.10.X'
p1010
sg79
S'95'
p1011
ssg94
(lp1012
S'cpe:/o:apple:mac_os_x:10.10.2'
p1013
asasa(dp1014
g73
(dp1015
g75
S'4771'
p1016
sg77
S'Apple Mac OS X 10.10.3 (Darwin 14.3.0)'
p1017
sg79
S'95'
p1018
ssg81
(lp1019
(dp1020
g84
(dp1021
g17
S'Apple'
p1022
sg87
S'Mac OS X'
p1023
sg89
S'general purpose'
p1024
sg91
S'10.10.X'
p1025
sg79
S'95'
p1026
ssg94
(lp1027
S'cpe:/o:apple:mac_os_x:10.10.3'
p1028
asasa(dp1029
g73
(dp1030
g75
S'6164'
p1031
sg77
S'Apple Mac OS X 10.7.0 (Lion) - 10.10 (Yosemite) or iOS 4.1 - 8.3 (Darwin 10.0.0 - 14.5.0)'
p1032
sg79
S'95'
p1033
ssg81
(lp1034
(dp1035
g84
(dp1036
g17
S'Apple'
p1037
sg87
S'Mac OS X'
p1038
sg89
S'general purpose'
p1039
sg91
S'10.7.X'
p1040
sg79
S'95'
p1041
ssg94
(lp1042
S'cpe:/o:apple:mac_os_x:10.7'
p1043
asa(dp1044
g84
(dp1045
g17
S'Apple'
p1046
sg87
S'Mac OS X'
p1047
sg89
S'general purpose'
p1048
sg91
S'10.8.X'
p1049
sg79
S'95'
p1050
ssg94
(lp1051
S'cpe:/o:apple:mac_os_x:10.8'
p1052
asa(dp1053
g84
(dp1054
g17
S'Apple'
p1055
sg87
S'Mac OS X'
p1056
sg89
S'general purpose'
p1057
sg91
S'10.9.X'
p1058
sg79
S'95'
p1059
ssg94
(lp1060
S'cpe:/o:apple:mac_os_x:10.9'
p1061
asa(dp1062
g84
(dp1063
g17
S'Apple'
p1064
sg87
S'iOS'
p1065
sg89
S'media device'
p1066
sg91
S'4.X'
p1067
sg79
S'95'
p1068
ssg94
(lp1069
S'cpe:/o:apple:iphone_os:4'
p1070
aS'cpe:/a:apple:apple_tv:4'
p1071
asa(dp1072
g84
(dp1073
g17
S'Apple'
p1074
sg87
S'iOS'
p1075
sg89
S'phone'
p1076
sg91
S'4.X'
p1077
sg79
S'95'
p1078
ssg94
(lp1079
S'cpe:/o:apple:iphone_os:4'
p1080
asa(dp1081
g84
(dp1082
g17
S'Apple'
p1083
sg87
S'iOS'
p1084
sg89
S'phone'
p1085
sg91
S'5.X'
p1086
sg79
S'95'
p1087
ssg94
(lp1088
S'cpe:/o:apple:iphone_os:5'
p1089
asa(dp1090
g84
(dp1091
g17
S'Apple'
p1092
sg87
S'iOS'
p1093
sg89
S'phone'
p1094
sg91
S'6.X'
p1095
sg79
S'95'
p1096
ssg94
(lp1097
S'cpe:/o:apple:iphone_os:6'
p1098
asa(dp1099
g84
(dp1100
g17
S'Apple'
p1101
sg87
S'iOS'
p1102
sg89
S'phone'
p1103
sg91
S'7.X'
p1104
sg79
S'95'
p1105
ssg94
(lp1106
S'cpe:/o:apple:iphone_os:7'
p1107
asa(dp1108
g84
(dp1109
g17
S'Apple'
p1110
sg87
S'iOS'
p1111
sg89
S'phone'
p1112
sg91
S'8.X'
p1113
sg79
S'95'
p1114
ssg94
(lp1115
S'cpe:/o:apple:iphone_os:8'
p1116
asasa(dp1117
g73
(dp1118
g75
S'6459'
p1119
sg77
S'Apple Mac OS X 10.7.3 (Lion) (Darwin 11.3.0)'
p1120
sg79
S'95'
p1121
ssg81
(lp1122
(dp1123
g84
(dp1124
g17
S'Apple'
p1125
sg87
S'Mac OS X'
p1126
sg89
S'general purpose'
p1127
sg91
S'10.7.X'
p1128
sg79
S'95'
p1129
ssg94
(lp1130
S'cpe:/o:apple:mac_os_x:10.7'
p1131
asasasg97
(lp1132
(dp1133
g59
S'open'
p1134
sg101
S'3689'
p1135
sg103
S'tcp'
p1136
sa(dp1137
g59
S'closed'
p1138
sg101
S'1'
sg103
S'tcp'
p1139
sa(dp1140
g59
S'closed'
p1141
sg101
S'43825'
p1142
sg103
S'udp'
p1143
sasg81
(lp1144
sg113
(lp1145
(dp1146
g116
S'OS:SCAN(V=7.01%E=4%D=12/12%OT=3689%CT=1%CU=43825%PV=N%DS=1%DC=D%G=Y%M=48D70\nOS:5%TM=5A308181%P=x86_64-pc-linux-gnu)SEQ(SP=104%GCD=1%ISR=10C%TI=RD%CI=RD\nOS:%TS=A)SEQ(SP=101%GCD=1%ISR=10A%TI=RD%CI=RD%II=RI%TS=A)OPS(O1=M56ANW5NNT1\nOS:1SLL%O2=M56ANW5NNT11SLL%O3=M56ANW5NNT11%O4=M56ANW5NNT11SLL%O5=M56ANW5NNT\nOS:11SLL%O6=M56ANNT11SLL)WIN(W1=FFFF%W2=FFFF%W3=FFFF%W4=FFFF%W5=FFFF%W6=FFF\nOS:F)ECN(R=Y%DF=Y%T=40%W=FFFF%O=M56ANW5SLL%CC=N%Q=)T1(R=Y%DF=Y%T=40%S=O%A=S\nOS:+%F=AS%RD=0%Q=)T2(R=N)T3(R=N)T4(R=Y%DF=Y%T=40%W=0%S=A%A=Z%F=R%O=%RD=0%Q=\nOS:)T5(R=Y%DF=N%T=40%W=0%S=Z%A=S+%F=AR%O=%RD=0%Q=)T6(R=Y%DF=Y%T=40%W=0%S=A%\nOS:A=Z%F=R%O=%RD=0%Q=)T7(R=Y%DF=N%T=40%W=0%S=Z%A=S%F=AR%O=%RD=0%Q=)U1(R=Y%D\nOS:F=N%T=40%IPL=38%UN=0%RIPL=G%RID=G%RIPCK=G%RUCK=0%RUD=G)IE(R=Y%DFI=S%T=40\nOS:%CD=S)\n'
p1147
sassg118
(dp1148
g44
S'3776,6D8D,2709,459,B98A,792D'
p1149
sg51
S'Randomized'
p1150
sssg122
(lp1151
g2
(g124
g4
NtRp1152
(dp1153
g127
S''
sg128
I21
sg129
(lp1154
sg131
S'no-response'
p1155
sg133
(dp1156
g59
S'filtered'
p1157
sg65
g1155
sg136
S'0'
ssg137
S'0'
sg138
S''
sg139
S''
sg140
S''
sg141
S'tcp'
p1158
sg143
(dp1159
g145
(lp1160
ssg147
(dp1161
g149
S'table'
p1162
sg151
(lp1163
sg153
S'3'
sg77
S'ftp'
p1164
ssbag2
(g124
g4
NtRp1165
(dp1166
g127
S''
sg128
I3689
sg129
(lp1167
sg131
S'syn-ack'
p1168
sg133
(dp1169
g59
S'open'
p1170
sg65
g1168
sg136
S'64'
p1171
ssg137
g1171
sg138
S''
sg139
S''
sg140
S''
sg141
S'tcp'
p1172
sg143
(dp1173
g145
(lp1174
ssg147
(dp1175
g149
S'table'
p1176
sg151
(lp1177
sg153
S'3'
sg77
S'rendezvous'
p1178
ssbasg797
S'1513128233'
p1179
sg799
S'1513128321'
p1180
sg801
(lp1181
sg803
g871
sg804
g868
sg805
g872
sg806
g868
sg807
(dp1182
g59
S'up'
p1183
sg65
S'arp-response'
p1184
sg136
S'0'
ssg811
g2
(g812
g4
NtRp1185
(dp1186
g815
(lp1187
g1147
asg817
(lp1188
g2
(g819
g4
NtRp1189
(dp1190
g822
g901
sg823
g903
sg824
(lp1191
g2
(g826
g4
NtRp1192
(dp1193
g829
g909
sg129
(lp1194
g2
(g831
g4
NtRp1195
(dp1196
g834
(dp1197
sg836
g913
sg837
(dp1198
g839
S'mac_os_x'
p1199
sg841
S'apple'
p1200
sg843
S''
sg94
S'cpe'
p1201
sg845
S''
sg846
S''
sg847
S'10.9'
p1202
sg848
S'/o'
p1203
ssbasg823
g911
sg803
g907
sg850
g908
sg851
g910
sbasg852
g902
sbag2
(g819
g4
NtRp1204
(dp1205
g822
g916
sg823
g918
sg824
(lp1206
g2
(g826
g4
NtRp1207
(dp1208
g829
g924
sg129
(lp1209
g2
(g831
g4
NtRp1210
(dp1211
g834
(dp1212
sg836
g928
sg837
(dp1213
g839
S'apple_tv'
p1214
sg841
S'apple'
p1215
sg843
S''
sg94
S'cpe'
p1216
sg845
S''
sg846
S''
sg847
S'5.2.1'
p1217
sg848
S'/a'
p1218
ssbag2
(g831
g4
NtRp1219
(dp1220
g834
(dp1221
sg836
g929
sg837
(dp1222
g839
S'apple_tv'
p1223
sg841
S'apple'
p1224
sg843
S''
sg94
S'cpe'
p1225
sg845
S''
sg846
S''
sg847
S'5.3'
p1226
sg848
S'/a'
p1227
ssbasg823
g926
sg803
g922
sg850
g923
sg851
g925
sbasg852
g917
sbag2
(g819
g4
NtRp1228
(dp1229
g822
g932
sg823
g934
sg824
(lp1230
g2
(g826
g4
NtRp1231
(dp1232
g829
g940
sg129
(lp1233
g2
(g831
g4
NtRp1234
(dp1235
g834
(dp1236
sg836
g944
sg837
(dp1237
g839
S'iphone_os'
p1238
sg841
S'apple'
p1239
sg843
S''
sg94
S'cpe'
p1240
sg845
S''
sg846
S''
sg847
S'5'
sg848
S'/o'
p1241
ssbasg823
g942
sg803
g938
sg850
g939
sg851
g941
sbasg852
g933
sbag2
(g819
g4
NtRp1242
(dp1243
g822
g947
sg823
g949
sg824
(lp1244
g2
(g826
g4
NtRp1245
(dp1246
g829
g955
sg129
(lp1247
g2
(g831
g4
NtRp1248
(dp1249
g834
(dp1250
sg836
g959
sg837
(dp1251
g839
S'iphone_os'
p1252
sg841
S'apple'
p1253
sg843
S''
sg94
S'cpe'
p1254
sg845
S''
sg846
S''
sg847
S'5.0.1'
p1255
sg848
S'/o'
p1256
ssbasg823
g957
sg803
g953
sg850
g954
sg851
g956
sbag2
(g826
g4
NtRp1257
(dp1258
g829
g964
sg129
(lp1259
g2
(g831
g4
NtRp1260
(dp1261
g834
(dp1262
sg836
g968
sg837
(dp1263
g839
S'iphone_os'
p1264
sg841
S'apple'
p1265
sg843
S''
sg94
S'cpe'
p1266
sg845
S''
sg846
S''
sg847
S'5.0.1'
p1267
sg848
S'/o'
p1268
ssbasg823
g966
sg803
g962
sg850
g963
sg851
g965
sbasg852
g948
sbag2
(g819
g4
NtRp1269
(dp1270
g822
g971
sg823
g973
sg824
(lp1271
g2
(g826
g4
NtRp1272
(dp1273
g829
g979
sg129
(lp1274
g2
(g831
g4
NtRp1275
(dp1276
g834
(dp1277
sg836
g983
sg837
(dp1278
g839
S'iphone_os'
p1279
sg841
S'apple'
p1280
sg843
S''
sg94
S'cpe'
p1281
sg845
S''
sg846
S''
sg847
S'6.0.1'
p1282
sg848
S'/o'
p1283
ssbasg823
g981
sg803
g977
sg850
g978
sg851
g980
sbasg852
g972
sbag2
(g819
g4
NtRp1284
(dp1285
g822
g986
sg823
g988
sg824
(lp1286
g2
(g826
g4
NtRp1287
(dp1288
g829
g994
sg129
(lp1289
g2
(g831
g4
NtRp1290
(dp1291
g834
(dp1292
sg836
g998
sg837
(dp1293
g839
S'iphone_os'
p1294
sg841
S'apple'
p1295
sg843
S''
sg94
S'cpe'
p1296
sg845
S''
sg846
S''
sg847
S'6.1.4'
p1297
sg848
S'/o'
p1298
ssbasg823
g996
sg803
g992
sg850
g993
sg851
g995
sbasg852
g987
sbag2
(g819
g4
NtRp1299
(dp1300
g822
g1001
sg823
g1003
sg824
(lp1301
g2
(g826
g4
NtRp1302
(dp1303
g829
g1009
sg129
(lp1304
g2
(g831
g4
NtRp1305
(dp1306
g834
(dp1307
sg836
g1013
sg837
(dp1308
g839
S'mac_os_x'
p1309
sg841
S'apple'
p1310
sg843
S''
sg94
S'cpe'
p1311
sg845
S''
sg846
S''
sg847
S'10.10.2'
p1312
sg848
S'/o'
p1313
ssbasg823
g1011
sg803
g1007
sg850
g1008
sg851
g1010
sbasg852
g1002
sbag2
(g819
g4
NtRp1314
(dp1315
g822
g1016
sg823
g1018
sg824
(lp1316
g2
(g826
g4
NtRp1317
(dp1318
g829
g1024
sg129
(lp1319
g2
(g831
g4
NtRp1320
(dp1321
g834
(dp1322
sg836
g1028
sg837
(dp1323
g839
S'mac_os_x'
p1324
sg841
S'apple'
p1325
sg843
S''
sg94
S'cpe'
p1326
sg845
S''
sg846
S''
sg847
S'10.10.3'
p1327
sg848
S'/o'
p1328
ssbasg823
g1026
sg803
g1022
sg850
g1023
sg851
g1025
sbasg852
g1017
sbag2
(g819
g4
NtRp1329
(dp1330
g822
g1031
sg823
g1033
sg824
(lp1331
g2
(g826
g4
NtRp1332
(dp1333
g829
g1039
sg129
(lp1334
g2
(g831
g4
NtRp1335
(dp1336
g834
(dp1337
sg836
g1043
sg837
(dp1338
g839
S'mac_os_x'
p1339
sg841
S'apple'
p1340
sg843
S''
sg94
S'cpe'
p1341
sg845
S''
sg846
S''
sg847
S'10.7'
p1342
sg848
S'/o'
p1343
ssbasg823
g1041
sg803
g1037
sg850
g1038
sg851
g1040
sbag2
(g826
g4
NtRp1344
(dp1345
g829
g1048
sg129
(lp1346
g2
(g831
g4
NtRp1347
(dp1348
g834
(dp1349
sg836
g1052
sg837
(dp1350
g839
S'mac_os_x'
p1351
sg841
S'apple'
p1352
sg843
S''
sg94
S'cpe'
p1353
sg845
S''
sg846
S''
sg847
S'10.8'
p1354
sg848
S'/o'
p1355
ssbasg823
g1050
sg803
g1046
sg850
g1047
sg851
g1049
sbag2
(g826
g4
NtRp1356
(dp1357
g829
g1057
sg129
(lp1358
g2
(g831
g4
NtRp1359
(dp1360
g834
(dp1361
sg836
g1061
sg837
(dp1362
g839
S'mac_os_x'
p1363
sg841
S'apple'
p1364
sg843
S''
sg94
S'cpe'
p1365
sg845
S''
sg846
S''
sg847
S'10.9'
p1366
sg848
S'/o'
p1367
ssbasg823
g1059
sg803
g1055
sg850
g1056
sg851
g1058
sbag2
(g826
g4
NtRp1368
(dp1369
g829
g1066
sg129
(lp1370
g2
(g831
g4
NtRp1371
(dp1372
g834
(dp1373
sg836
g1070
sg837
(dp1374
g839
S'iphone_os'
p1375
sg841
S'apple'
p1376
sg843
S''
sg94
S'cpe'
p1377
sg845
S''
sg846
S''
sg847
S'4'
sg848
S'/o'
p1378
ssbag2
(g831
g4
NtRp1379
(dp1380
g834
(dp1381
sg836
g1071
sg837
(dp1382
g839
S'apple_tv'
p1383
sg841
S'apple'
p1384
sg843
S''
sg94
S'cpe'
p1385
sg845
S''
sg846
S''
sg847
S'4'
sg848
S'/a'
p1386
ssbasg823
g1068
sg803
g1064
sg850
g1065
sg851
g1067
sbag2
(g826
g4
NtRp1387
(dp1388
g829
g1076
sg129
(lp1389
g2
(g831
g4
NtRp1390
(dp1391
g834
(dp1392
sg836
g1080
sg837
(dp1393
g839
S'iphone_os'
p1394
sg841
S'apple'
p1395
sg843
S''
sg94
S'cpe'
p1396
sg845
S''
sg846
S''
sg847
S'4'
sg848
S'/o'
p1397
ssbasg823
g1078
sg803
g1074
sg850
g1075
sg851
g1077
sbag2
(g826
g4
NtRp1398
(dp1399
g829
g1085
sg129
(lp1400
g2
(g831
g4
NtRp1401
(dp1402
g834
(dp1403
sg836
g1089
sg837
(dp1404
g839
S'iphone_os'
p1405
sg841
S'apple'
p1406
sg843
S''
sg94
S'cpe'
p1407
sg845
S''
sg846
S''
sg847
S'5'
sg848
S'/o'
p1408
ssbasg823
g1087
sg803
g1083
sg850
g1084
sg851
g1086
sbag2
(g826
g4
NtRp1409
(dp1410
g829
g1094
sg129
(lp1411
g2
(g831
g4
NtRp1412
(dp1413
g834
(dp1414
sg836
g1098
sg837
(dp1415
g839
S'iphone_os'
p1416
sg841
S'apple'
p1417
sg843
S''
sg94
S'cpe'
p1418
sg845
S''
sg846
S''
sg847
S'6'
sg848
S'/o'
p1419
ssbasg823
g1096
sg803
g1092
sg850
g1093
sg851
g1095
sbag2
(g826
g4
NtRp1420
(dp1421
g829
g1103
sg129
(lp1422
g2
(g831
g4
NtRp1423
(dp1424
g834
(dp1425
sg836
g1107
sg837
(dp1426
g839
S'iphone_os'
p1427
sg841
S'apple'
p1428
sg843
S''
sg94
S'cpe'
p1429
sg845
S''
sg846
S''
sg847
S'7'
sg848
S'/o'
p1430
ssbasg823
g1105
sg803
g1101
sg850
g1102
sg851
g1104
sbag2
(g826
g4
NtRp1431
(dp1432
g829
g1112
sg129
(lp1433
g2
(g831
g4
NtRp1434
(dp1435
g834
(dp1436
sg836
g1116
sg837
(dp1437
g839
S'iphone_os'
p1438
sg841
S'apple'
p1439
sg843
S''
sg94
S'cpe'
p1440
sg845
S''
sg846
S''
sg847
S'8'
sg848
S'/o'
p1441
ssbasg823
g1114
sg803
g1110
sg850
g1111
sg851
g1113
sbasg852
g1032
sbag2
(g819
g4
NtRp1442
(dp1443
g822
g1119
sg823
g1121
sg824
(lp1444
g2
(g826
g4
NtRp1445
(dp1446
g829
g1127
sg129
(lp1447
g2
(g831
g4
NtRp1448
(dp1449
g834
(dp1450
sg836
g1131
sg837
(dp1451
g839
S'mac_os_x'
p1452
sg841
S'apple'
p1453
sg843
S''
sg94
S'cpe'
p1454
sg845
S''
sg846
S''
sg847
S'10.7'
p1455
sg848
S'/o'
p1456
ssbasg823
g1129
sg803
g1125
sg850
g1126
sg851
g1128
sbasg852
g1120
sbasg853
(lp1457
g2
(g855
g4
NtRp1458
(dp1459
g133
g1134
sg858
g1136
sg128
g1135
sbag2
(g855
g4
NtRp1460
(dp1461
g133
g1138
sg858
g1139
sg128
S'1'
sbag2
(g855
g4
NtRp1462
(dp1463
g133
g1141
sg858
g1143
sg128
g1142
sbasbsbag2
(g3
g4
NtRp1464
(dp1465
g7
I01
sg8
(lp1466
(dp1467
g11
S'ipv4'
p1468
sg13
S'160.39.10.70'
p1469
sa(dp1470
g11
S'mac'
p1471
sg13
S'C0:CC:F8:49:43:FC'
p1472
sasg20
Nsg21
(dp1473
g23
(dp1474
g25
S'1'
ssg26
(dp1475
g28
S'1458691'
p1476
sg30
S'Sat Nov 25 23:13:50 2017'
p1477
ssg32
(dp1478
g34
S'100000'
p1479
sg36
S'3934'
p1480
sg38
S'7726'
p1481
ssg40
(dp1482
g42
S'264'
p1483
sg44
S'EBBF2A66,6338ECF1,573F5412,8F67E1FD,4F86F9F'
p1484
sg46
S'Good luck!'
p1485
ssg48
(dp1486
g44
S'3DE79360,3DE79361,3DE793B9,3DE7941C,3DE7947D'
p1487
sg51
S'other'
p1488
ssg53
(dp1489
g55
(dp1490
g57
S'946'
p1491
sg59
S'closed'
p1492
ssg61
(lp1493
(dp1494
g57
S'946'
p1495
sg65
S'resets'
p1496
sasg67
g1490
ssg68
(dp1497
g70
(lp1498
(dp1499
g73
(dp1500
g75
S'3669'
p1501
sg77
S'Apple iOS 5.0.1 - 5.1.1'
p1502
sg79
S'93'
p1503
ssg81
(lp1504
(dp1505
g84
(dp1506
g17
S'Apple'
p1507
sg87
S'iOS'
p1508
sg89
S'media device'
p1509
sg91
S'5.X'
p1510
sg79
S'93'
p1511
ssg94
(lp1512
S'cpe:/o:apple:iphone_os:5'
p1513
asasa(dp1514
g73
(dp1515
g75
S'3088'
p1516
sg77
S'Apple TV 5.2.1 or 5.3'
p1517
sg79
S'93'
p1518
ssg81
(lp1519
(dp1520
g84
(dp1521
g17
S'Apple'
p1522
sg87
S'Apple TV'
p1523
sg89
S'media device'
p1524
sg91
S'5.X'
p1525
sg79
S'93'
p1526
ssg94
(lp1527
S'cpe:/a:apple:apple_tv:5.2.1'
p1528
aS'cpe:/a:apple:apple_tv:5.3'
p1529
asasa(dp1530
g73
(dp1531
g75
S'3629'
p1532
sg77
S'Apple iOS 5.0.1'
p1533
sg79
S'93'
p1534
ssg81
(lp1535
(dp1536
g84
(dp1537
g17
S'Apple'
p1538
sg87
S'iOS'
p1539
sg89
S'media device'
p1540
sg91
S'5.X'
p1541
sg79
S'93'
p1542
ssg94
(lp1543
S'cpe:/o:apple:iphone_os:5.0.1'
p1544
asa(dp1545
g84
(dp1546
g17
S'Apple'
p1547
sg87
S'iOS'
p1548
sg89
S'phone'
p1549
sg91
S'5.X'
p1550
sg79
S'93'
p1551
ssg94
(lp1552
S'cpe:/o:apple:iphone_os:5.0.1'
p1553
asasa(dp1554
g73
(dp1555
g75
S'3794'
p1556
sg77
S'Apple iOS 6.0.1'
p1557
sg79
S'93'
p1558
ssg81
(lp1559
(dp1560
g84
(dp1561
g17
S'Apple'
p1562
sg87
S'iOS'
p1563
sg89
S'phone'
p1564
sg91
S'6.X'
p1565
sg79
S'93'
p1566
ssg94
(lp1567
S'cpe:/o:apple:iphone_os:6.0.1'
p1568
asasa(dp1569
g73
(dp1570
g75
S'3830'
p1571
sg77
S'Apple iOS 6.1.4 (Darwin 13.0.0)'
p1572
sg79
S'93'
p1573
ssg81
(lp1574
(dp1575
g84
(dp1576
g17
S'Apple'
p1577
sg87
S'iOS'
p1578
sg89
S'phone'
p1579
sg91
S'6.X'
p1580
sg79
S'93'
p1581
ssg94
(lp1582
S'cpe:/o:apple:iphone_os:6.1.4'
p1583
asasa(dp1584
g73
(dp1585
g75
S'3848'
p1586
sg77
S'Apple iOS 7'
p1587
sg79
S'93'
p1588
ssg81
(lp1589
(dp1590
g84
(dp1591
g17
S'Apple'
p1592
sg87
S'iOS'
p1593
sg89
S'media device'
p1594
sg91
S'7.X'
p1595
sg79
S'93'
p1596
ssg94
(lp1597
S'cpe:/o:apple:iphone_os:7'
p1598
asasa(dp1599
g73
(dp1600
g75
S'4752'
p1601
sg77
S'Apple Mac OS X 10.10.2 (Darwin 14.1.0)'
p1602
sg79
S'93'
p1603
ssg81
(lp1604
(dp1605
g84
(dp1606
g17
S'Apple'
p1607
sg87
S'Mac OS X'
p1608
sg89
S'general purpose'
p1609
sg91
S'10.10.X'
p1610
sg79
S'93'
p1611
ssg94
(lp1612
S'cpe:/o:apple:mac_os_x:10.10.2'
p1613
asasa(dp1614
g73
(dp1615
g75
S'4771'
p1616
sg77
S'Apple Mac OS X 10.10.3 (Darwin 14.3.0)'
p1617
sg79
S'93'
p1618
ssg81
(lp1619
(dp1620
g84
(dp1621
g17
S'Apple'
p1622
sg87
S'Mac OS X'
p1623
sg89
S'general purpose'
p1624
sg91
S'10.10.X'
p1625
sg79
S'93'
p1626
ssg94
(lp1627
S'cpe:/o:apple:mac_os_x:10.10.3'
p1628
asasa(dp1629
g73
(dp1630
g75
S'6164'
p1631
sg77
S'Apple Mac OS X 10.7.0 (Lion) - 10.10 (Yosemite) or iOS 4.1 - 8.3 (Darwin 10.0.0 - 14.5.0)'
p1632
sg79
S'93'
p1633
ssg81
(lp1634
(dp1635
g84
(dp1636
g17
S'Apple'
p1637
sg87
S'Mac OS X'
p1638
sg89
S'general purpose'
p1639
sg91
S'10.7.X'
p1640
sg79
S'93'
p1641
ssg94
(lp1642
S'cpe:/o:apple:mac_os_x:10.7'
p1643
asa(dp1644
g84
(dp1645
g17
S'Apple'
p1646
sg87
S'Mac OS X'
p1647
sg89
S'general purpose'
p1648
sg91
S'10.8.X'
p1649
sg79
S'93'
p1650
ssg94
(lp1651
S'cpe:/o:apple:mac_os_x:10.8'
p1652
asa(dp1653
g84
(dp1654
g17
S'Apple'
p1655
sg87
S'Mac OS X'
p1656
sg89
S'general purpose'
p1657
sg91
S'10.9.X'
p1658
sg79
S'93'
p1659
ssg94
(lp1660
S'cpe:/o:apple:mac_os_x:10.9'
p1661
asa(dp1662
g84
(dp1663
g17
S'Apple'
p1664
sg87
S'iOS'
p1665
sg89
S'media device'
p1666
sg91
S'4.X'
p1667
sg79
S'93'
p1668
ssg94
(lp1669
S'cpe:/o:apple:iphone_os:4'
p1670
aS'cpe:/a:apple:apple_tv:4'
p1671
asa(dp1672
g84
(dp1673
g17
S'Apple'
p1674
sg87
S'iOS'
p1675
sg89
S'phone'
p1676
sg91
S'4.X'
p1677
sg79
S'93'
p1678
ssg94
(lp1679
S'cpe:/o:apple:iphone_os:4'
p1680
asa(dp1681
g84
(dp1682
g17
S'Apple'
p1683
sg87
S'iOS'
p1684
sg89
S'phone'
p1685
sg91
S'5.X'
p1686
sg79
S'93'
p1687
ssg94
(lp1688
S'cpe:/o:apple:iphone_os:5'
p1689
asa(dp1690
g84
(dp1691
g17
S'Apple'
p1692
sg87
S'iOS'
p1693
sg89
S'phone'
p1694
sg91
S'6.X'
p1695
sg79
S'93'
p1696
ssg94
(lp1697
S'cpe:/o:apple:iphone_os:6'
p1698
asa(dp1699
g84
(dp1700
g17
S'Apple'
p1701
sg87
S'iOS'
p1702
sg89
S'phone'
p1703
sg91
S'7.X'
p1704
sg79
S'93'
p1705
ssg94
(lp1706
S'cpe:/o:apple:iphone_os:7'
p1707
asa(dp1708
g84
(dp1709
g17
S'Apple'
p1710
sg87
S'iOS'
p1711
sg89
S'phone'
p1712
sg91
S'8.X'
p1713
sg79
S'93'
p1714
ssg94
(lp1715
S'cpe:/o:apple:iphone_os:8'
p1716
asasa(dp1717
g73
(dp1718
g75
S'6459'
p1719
sg77
S'Apple Mac OS X 10.7.3 (Lion) (Darwin 11.3.0)'
p1720
sg79
S'93'
p1721
ssg81
(lp1722
(dp1723
g84
(dp1724
g17
S'Apple'
p1725
sg87
S'Mac OS X'
p1726
sg89
S'general purpose'
p1727
sg91
S'10.7.X'
p1728
sg79
S'93'
p1729
ssg94
(lp1730
S'cpe:/o:apple:mac_os_x:10.7'
p1731
asasasg97
(lp1732
(dp1733
g59
S'open'
p1734
sg101
S'62078'
p1735
sg103
S'tcp'
p1736
sa(dp1737
g59
S'closed'
p1738
sg101
S'1'
sg103
S'tcp'
p1739
sa(dp1740
g59
S'closed'
p1741
sg101
S'35408'
p1742
sg103
S'udp'
p1743
sasg81
(lp1744
sg113
(lp1745
(dp1746
g116
S'OS:SCAN(V=7.01%E=4%D=12/12%OT=62078%CT=1%CU=35408%PV=N%DS=1%DC=D%G=Y%M=C0CC\nOS:F8%TM=5A308181%P=x86_64-pc-linux-gnu)SEQ(SP=FF%GCD=1%ISR=106%TI=Z%CI=RD%\nOS:TS=A)SEQ(SP=104%GCD=1%ISR=10B%TI=Z%CI=RD%II=RI%TS=A)OPS(O1=M56ANW6NNT11S\nOS:LL%O2=M56ANW6NNT11SLL%O3=M56ANW6NNT11%O4=M56ANW6NNT11SLL%O5=M56ANW6NNT11\nOS:SLL%O6=M56ANNT11SLL)WIN(W1=FFFF%W2=FFFF%W3=FFFF%W4=FFFF%W5=FFFF%W6=FFFF)\nOS:ECN(R=Y%DF=Y%T=40%W=FFFF%O=M56ANW6SLL%CC=N%Q=)T1(R=Y%DF=Y%T=40%S=O%A=S+%\nOS:F=AS%RD=0%Q=)T2(R=N)T3(R=N)T4(R=Y%DF=Y%T=40%W=0%S=A%A=Z%F=R%O=%RD=0%Q=)T\nOS:5(R=Y%DF=N%T=40%W=0%S=Z%A=S+%F=AR%O=%RD=0%Q=)T6(R=Y%DF=Y%T=40%W=0%S=A%A=\nOS:Z%F=R%O=%RD=0%Q=)T7(R=Y%DF=N%T=40%W=0%S=Z%A=S%F=AR%O=%RD=0%Q=)U1(R=Y%DF=\nOS:N%T=40%IPL=38%UN=0%RIPL=G%RID=G%RIPCK=G%RUCK=0%RUD=G)IE(R=Y%DFI=S%T=40%C\nOS:D=S)\n'
p1747
sassg118
(dp1748
g44
S'0,0,0,0,0'
p1749
sg51
S'All zeros'
p1750
sssg122
(lp1751
g2
(g124
g4
NtRp1752
(dp1753
g127
S''
sg128
I9
sg129
(lp1754
sg131
S'no-response'
p1755
sg133
(dp1756
g59
S'filtered'
p1757
sg65
g1755
sg136
S'0'
ssg137
S'0'
sg138
S''
sg139
S''
sg140
S''
sg141
S'tcp'
p1758
sg143
(dp1759
g145
(lp1760
ssg147
(dp1761
g149
S'table'
p1762
sg151
(lp1763
sg153
S'3'
sg77
S'discard'
p1764
ssbag2
(g124
g4
NtRp1765
(dp1766
g127
S''
sg128
I17
sg129
(lp1767
sg131
S'no-response'
p1768
sg133
(dp1769
g59
S'filtered'
p1770
sg65
g1768
sg136
S'0'
ssg137
S'0'
sg138
S''
sg139
S''
sg140
S''
sg141
S'tcp'
p1771
sg143
(dp1772
g145
(lp1773
ssg147
(dp1774
g149
S'table'
p1775
sg151
(lp1776
sg153
S'3'
sg77
S'qotd'
p1777
ssbag2
(g124
g4
NtRp1778
(dp1779
g127
S''
sg128
I21
sg129
(lp1780
sg131
S'no-response'
p1781
sg133
(dp1782
g59
S'filtered'
p1783
sg65
g1781
sg136
S'0'
ssg137
S'0'
sg138
S''
sg139
S''
sg140
S''
sg141
S'tcp'
p1784
sg143
(dp1785
g145
(lp1786
ssg147
(dp1787
g149
S'table'
p1788
sg151
(lp1789
sg153
S'3'
sg77
S'ftp'
p1790
ssbag2
(g124
g4
NtRp1791
(dp1792
g127
S''
sg128
I99
sg129
(lp1793
sg131
S'no-response'
p1794
sg133
(dp1795
g59
S'filtered'
p1796
sg65
g1794
sg136
S'0'
ssg137
S'0'
sg138
S''
sg139
S''
sg140
S''
sg141
S'tcp'
p1797
sg143
(dp1798
g145
(lp1799
ssg147
(dp1800
g149
S'table'
p1801
sg151
(lp1802
sg153
S'3'
sg77
S'metagram'
p1803
ssbag2
(g124
g4
NtRp1804
(dp1805
g127
S''
sg128
I106
sg129
(lp1806
sg131
S'no-response'
p1807
sg133
(dp1808
g59
S'filtered'
p1809
sg65
g1807
sg136
S'0'
ssg137
S'0'
sg138
S''
sg139
S''
sg140
S''
sg141
S'tcp'
p1810
sg143
(dp1811
g145
(lp1812
ssg147
(dp1813
g149
S'table'
p1814
sg151
(lp1815
sg153
S'3'
sg77
S'pop3pw'
p1816
ssbag2
(g124
g4
NtRp1817
(dp1818
g127
S''
sg128
I306
sg129
(lp1819
sg131
S'no-response'
p1820
sg133
(dp1821
g59
S'filtered'
p1822
sg65
g1820
sg136
S'0'
ssg137
S'0'
sg138
S''
sg139
S''
sg140
S''
sg141
S'tcp'
p1823
sg143
(dp1824
g145
(lp1825
ssg147
(dp1826
g149
S'table'
p1827
sg151
(lp1828
sg153
S'3'
sg77
S'unknown'
p1829
ssbag2
(g124
g4
NtRp1830
(dp1831
g127
S''
sg128
I667
sg129
(lp1832
sg131
S'no-response'
p1833
sg133
(dp1834
g59
S'filtered'
p1835
sg65
g1833
sg136
S'0'
ssg137
S'0'
sg138
S''
sg139
S''
sg140
S''
sg141
S'tcp'
p1836
sg143
(dp1837
g145
(lp1838
ssg147
(dp1839
g149
S'table'
p1840
sg151
(lp1841
sg153
S'3'
sg77
S'disclose'
p1842
ssbag2
(g124
g4
NtRp1843
(dp1844
g127
S''
sg128
I911
sg129
(lp1845
sg131
S'no-response'
p1846
sg133
(dp1847
g59
S'filtered'
p1848
sg65
g1846
sg136
S'0'
ssg137
S'0'
sg138
S''
sg139
S''
sg140
S''
sg141
S'tcp'
p1849
sg143
(dp1850
g145
(lp1851
ssg147
(dp1852
g149
S'table'
p1853
sg151
(lp1854
sg153
S'3'
sg77
S'xact-backup'
p1855
ssbag2
(g124
g4
NtRp1856
(dp1857
g127
S''
sg128
I1023
sg129
(lp1858
sg131
S'no-response'
p1859
sg133
(dp1860
g59
S'filtered'
p1861
sg65
g1859
sg136
S'0'
ssg137
S'0'
sg138
S''
sg139
S''
sg140
S''
sg141
S'tcp'
p1862
sg143
(dp1863
g145
(lp1864
ssg147
(dp1865
g149
S'table'
p1866
sg151
(lp1867
sg153
S'3'
sg77
S'netvenuechat'
p1868
ssbag2
(g124
g4
NtRp1869
(dp1870
g127
S''
sg128
I1041
sg129
(lp1871
sg131
S'no-response'
p1872
sg133
(dp1873
g59
S'filtered'
p1874
sg65
g1872
sg136
S'0'
ssg137
S'0'
sg138
S''
sg139
S''
sg140
S''
sg141
S'tcp'
p1875
sg143
(dp1876
g145
(lp1877
ssg147
(dp1878
g149
S'table'
p1879
sg151
(lp1880
sg153
S'3'
sg77
S'danf-ak2'
p1881
ssbag2
(g124
g4
NtRp1882
(dp1883
g127
S''
sg128
I1097
sg129
(lp1884
sg131
S'no-response'
p1885
sg133
(dp1886
g59
S'filtered'
p1887
sg65
g1885
sg136
S'0'
ssg137
S'0'
sg138
S''
sg139
S''
sg140
S''
sg141
S'tcp'
p1888
sg143
(dp1889
g145
(lp1890
ssg147
(dp1891
g149
S'table'
p1892
sg151
(lp1893
sg153
S'3'
sg77
S'sunclustermgr'
p1894
ssbag2
(g124
g4
NtRp1895
(dp1896
g127
S''
sg128
I1099
sg129
(lp1897
sg131
S'no-response'
p1898
sg133
(dp1899
g59
S'filtered'
p1900
sg65
g1898
sg136
S'0'
ssg137
S'0'
sg138
S''
sg139
S''
sg140
S''
sg141
S'tcp'
p1901
sg143
(dp1902
g145
(lp1903
ssg147
(dp1904
g149
S'table'
p1905
sg151
(lp1906
sg153
S'3'
sg77
S'rmiregistry'
p1907
ssbag2
(g124
g4
NtRp1908
(dp1909
g127
S''
sg128
I1131
sg129
(lp1910
sg131
S'no-response'
p1911
sg133
(dp1912
g59
S'filtered'
p1913
sg65
g1911
sg136
S'0'
ssg137
S'0'
sg138
S''
sg139
S''
sg140
S''
sg141
S'tcp'
p1914
sg143
(dp1915
g145
(lp1916
ssg147
(dp1917
g149
S'table'
p1918
sg151
(lp1919
sg153
S'3'
sg77
S'caspssl'
p1920
ssbag2
(g124
g4
NtRp1921
(dp1922
g127
S''
sg128
I1199
sg129
(lp1923
sg131
S'no-response'
p1924
sg133
(dp1925
g59
S'filtered'
p1926
sg65
g1924
sg136
S'0'
ssg137
S'0'
sg138
S''
sg139
S''
sg140
S''
sg141
S'tcp'
p1927
sg143
(dp1928
g145
(lp1929
ssg147
(dp1930
g149
S'table'
p1931
sg151
(lp1932
sg153
S'3'
sg77
S'dmidi'
p1933
ssbag2
(g124
g4
NtRp1934
(dp1935
g127
S''
sg128
I1500
sg129
(lp1936
sg131
S'no-response'
p1937
sg133
(dp1938
g59
S'filtered'
p1939
sg65
g1937
sg136
S'0'
ssg137
S'0'
sg138
S''
sg139
S''
sg140
S''
sg141
S'tcp'
p1940
sg143
(dp1941
g145
(lp1942
ssg147
(dp1943
g149
S'table'
p1944
sg151
(lp1945
sg153
S'3'
sg77
S'vlsi-lm'
p1946
ssbag2
(g124
g4
NtRp1947
(dp1948
g127
S''
sg128
I1782
sg129
(lp1949
sg131
S'no-response'
p1950
sg133
(dp1951
g59
S'filtered'
p1952
sg65
g1950
sg136
S'0'
ssg137
S'0'
sg138
S''
sg139
S''
sg140
S''
sg141
S'tcp'
p1953
sg143
(dp1954
g145
(lp1955
ssg147
(dp1956
g149
S'table'
p1957
sg151
(lp1958
sg153
S'3'
sg77
S'hp-hcip'
p1959
ssbag2
(g124
g4
NtRp1960
(dp1961
g127
S''
sg128
I2106
sg129
(lp1962
sg131
S'no-response'
p1963
sg133
(dp1964
g59
S'filtered'
p1965
sg65
g1963
sg136
S'0'
ssg137
S'0'
sg138
S''
sg139
S''
sg140
S''
sg141
S'tcp'
p1966
sg143
(dp1967
g145
(lp1968
ssg147
(dp1969
g149
S'table'
p1970
sg151
(lp1971
sg153
S'3'
sg77
S'ekshell'
p1972
ssbag2
(g124
g4
NtRp1973
(dp1974
g127
S''
sg128
I2557
sg129
(lp1975
sg131
S'no-response'
p1976
sg133
(dp1977
g59
S'filtered'
p1978
sg65
g1976
sg136
S'0'
ssg137
S'0'
sg138
S''
sg139
S''
sg140
S''
sg141
S'tcp'
p1979
sg143
(dp1980
g145
(lp1981
ssg147
(dp1982
g149
S'table'
p1983
sg151
(lp1984
sg153
S'3'
sg77
S'nicetec-mgmt'
p1985
ssbag2
(g124
g4
NtRp1986
(dp1987
g127
S''
sg128
I3007
sg129
(lp1988
sg131
S'no-response'
p1989
sg133
(dp1990
g59
S'filtered'
p1991
sg65
g1989
sg136
S'0'
ssg137
S'0'
sg138
S''
sg139
S''
sg140
S''
sg141
S'tcp'
p1992
sg143
(dp1993
g145
(lp1994
ssg147
(dp1995
g149
S'table'
p1996
sg151
(lp1997
sg153
S'3'
sg77
S'lotusmtap'
p1998
ssbag2
(g124
g4
NtRp1999
(dp2000
g127
S''
sg128
I3031
sg129
(lp2001
sg131
S'no-response'
p2002
sg133
(dp2003
g59
S'filtered'
p2004
sg65
g2002
sg136
S'0'
ssg137
S'0'
sg138
S''
sg139
S''
sg140
S''
sg141
S'tcp'
p2005
sg143
(dp2006
g145
(lp2007
ssg147
(dp2008
g149
S'table'
p2009
sg151
(lp2010
sg153
S'3'
sg77
S'eppc'
p2011
ssbag2
(g124
g4
NtRp2012
(dp2013
g127
S''
sg128
I3372
sg129
(lp2014
sg131
S'no-response'
p2015
sg133
(dp2016
g59
S'filtered'
p2017
sg65
g2015
sg136
S'0'
ssg137
S'0'
sg138
S''
sg139
S''
sg140
S''
sg141
S'tcp'
p2018
sg143
(dp2019
g145
(lp2020
ssg147
(dp2021
g149
S'table'
p2022
sg151
(lp2023
sg153
S'3'
sg77
S'msdtc'
p2024
ssbag2
(g124
g4
NtRp2025
(dp2026
g127
S''
sg128
I3800
sg129
(lp2027
sg131
S'no-response'
p2028
sg133
(dp2029
g59
S'filtered'
p2030
sg65
g2028
sg136
S'0'
ssg137
S'0'
sg138
S''
sg139
S''
sg140
S''
sg141
S'tcp'
p2031
sg143
(dp2032
g145
(lp2033
ssg147
(dp2034
g149
S'table'
p2035
sg151
(lp2036
sg153
S'3'
sg77
S'pwgpsi'
p2037
ssbag2
(g124
g4
NtRp2038
(dp2039
g127
S''
sg128
I3826
sg129
(lp2040
sg131
S'no-response'
p2041
sg133
(dp2042
g59
S'filtered'
p2043
sg65
g2041
sg136
S'0'
ssg137
S'0'
sg138
S''
sg139
S''
sg140
S''
sg141
S'tcp'
p2044
sg143
(dp2045
g145
(lp2046
ssg147
(dp2047
g149
S'table'
p2048
sg151
(lp2049
sg153
S'3'
sg77
S'wormux'
p2050
ssbag2
(g124
g4
NtRp2051
(dp2052
g127
S''
sg128
I3998
sg129
(lp2053
sg131
S'no-response'
p2054
sg133
(dp2055
g59
S'filtered'
p2056
sg65
g2054
sg136
S'0'
ssg137
S'0'
sg138
S''
sg139
S''
sg140
S''
sg141
S'tcp'
p2057
sg143
(dp2058
g145
(lp2059
ssg147
(dp2060
g149
S'table'
p2061
sg151
(lp2062
sg153
S'3'
sg77
S'dnx'
p2063
ssbag2
(g124
g4
NtRp2064
(dp2065
g127
S''
sg128
I4006
sg129
(lp2066
sg131
S'no-response'
p2067
sg133
(dp2068
g59
S'filtered'
p2069
sg65
g2067
sg136
S'0'
ssg137
S'0'
sg138
S''
sg139
S''
sg140
S''
sg141
S'tcp'
p2070
sg143
(dp2071
g145
(lp2072
ssg147
(dp2073
g149
S'table'
p2074
sg151
(lp2075
sg153
S'3'
sg77
S'pxc-spvr'
p2076
ssbag2
(g124
g4
NtRp2077
(dp2078
g127
S''
sg128
I4125
sg129
(lp2079
sg131
S'no-response'
p2080
sg133
(dp2081
g59
S'filtered'
p2082
sg65
g2080
sg136
S'0'
ssg137
S'0'
sg138
S''
sg139
S''
sg140
S''
sg141
S'tcp'
p2083
sg143
(dp2084
g145
(lp2085
ssg147
(dp2086
g149
S'table'
p2087
sg151
(lp2088
sg153
S'3'
sg77
S'rww'
p2089
ssbag2
(g124
g4
NtRp2090
(dp2091
g127
S''
sg128
I5060
sg129
(lp2092
sg131
S'no-response'
p2093
sg133
(dp2094
g59
S'filtered'
p2095
sg65
g2093
sg136
S'0'
ssg137
S'0'
sg138
S''
sg139
S''
sg140
S''
sg141
S'tcp'
p2096
sg143
(dp2097
g145
(lp2098
ssg147
(dp2099
g149
S'table'
p2100
sg151
(lp2101
sg153
S'3'
sg77
S'sip'
p2102
ssbag2
(g124
g4
NtRp2103
(dp2104
g127
S''
sg128
I5298
sg129
(lp2105
sg131
S'no-response'
p2106
sg133
(dp2107
g59
S'filtered'
p2108
sg65
g2106
sg136
S'0'
ssg137
S'0'
sg138
S''
sg139
S''
sg140
S''
sg141
S'tcp'
p2109
sg143
(dp2110
g145
(lp2111
ssg147
(dp2112
g149
S'table'
p2113
sg151
(lp2114
sg153
S'3'
sg77
S'presence'
p2115
ssbag2
(g124
g4
NtRp2116
(dp2117
g127
S''
sg128
I5357
sg129
(lp2118
sg131
S'no-response'
p2119
sg133
(dp2120
g59
S'filtered'
p2121
sg65
g2119
sg136
S'0'
ssg137
S'0'
sg138
S''
sg139
S''
sg140
S''
sg141
S'tcp'
p2122
sg143
(dp2123
g145
(lp2124
ssg147
(dp2125
g149
S'table'
p2126
sg151
(lp2127
sg153
S'3'
sg77
S'wsdapi'
p2128
ssbag2
(g124
g4
NtRp2129
(dp2130
g127
S''
sg128
I5544
sg129
(lp2131
sg131
S'no-response'
p2132
sg133
(dp2133
g59
S'filtered'
p2134
sg65
g2132
sg136
S'0'
ssg137
S'0'
sg138
S''
sg139
S''
sg140
S''
sg141
S'tcp'
p2135
sg143
(dp2136
g145
(lp2137
ssg147
(dp2138
g149
S'table'
p2139
sg151
(lp2140
sg153
S'3'
sg77
S'unknown'
p2141
ssbag2
(g124
g4
NtRp2142
(dp2143
g127
S''
sg128
I5555
sg129
(lp2144
sg131
S'no-response'
p2145
sg133
(dp2146
g59
S'filtered'
p2147
sg65
g2145
sg136
S'0'
ssg137
S'0'
sg138
S''
sg139
S''
sg140
S''
sg141
S'tcp'
p2148
sg143
(dp2149
g145
(lp2150
ssg147
(dp2151
g149
S'table'
p2152
sg151
(lp2153
sg153
S'3'
sg77
S'freeciv'
p2154
ssbag2
(g124
g4
NtRp2155
(dp2156
g127
S''
sg128
I5801
sg129
(lp2157
sg131
S'no-response'
p2158
sg133
(dp2159
g59
S'filtered'
p2160
sg65
g2158
sg136
S'0'
ssg137
S'0'
sg138
S''
sg139
S''
sg140
S''
sg141
S'tcp'
p2161
sg143
(dp2162
g145
(lp2163
ssg147
(dp2164
g149
S'table'
p2165
sg151
(lp2166
sg153
S'3'
sg77
S'vnc-http-1'
p2167
ssbag2
(g124
g4
NtRp2168
(dp2169
g127
S''
sg128
I6156
sg129
(lp2170
sg131
S'no-response'
p2171
sg133
(dp2172
g59
S'filtered'
p2173
sg65
g2171
sg136
S'0'
ssg137
S'0'
sg138
S''
sg139
S''
sg140
S''
sg141
S'tcp'
p2174
sg143
(dp2175
g145
(lp2176
ssg147
(dp2177
g149
S'table'
p2178
sg151
(lp2179
sg153
S'3'
sg77
S'unknown'
p2180
ssbag2
(g124
g4
NtRp2181
(dp2182
g127
S''
sg128
I6547
sg129
(lp2183
sg131
S'no-response'
p2184
sg133
(dp2185
g59
S'filtered'
p2186
sg65
g2184
sg136
S'0'
ssg137
S'0'
sg138
S''
sg139
S''
sg140
S''
sg141
S'tcp'
p2187
sg143
(dp2188
g145
(lp2189
ssg147
(dp2190
g149
S'table'
p2191
sg151
(lp2192
sg153
S'3'
sg77
S'powerchuteplus'
p2193
ssbag2
(g124
g4
NtRp2194
(dp2195
g127
S''
sg128
I6565
sg129
(lp2196
sg131
S'no-response'
p2197
sg133
(dp2198
g59
S'filtered'
p2199
sg65
g2197
sg136
S'0'
ssg137
S'0'
sg138
S''
sg139
S''
sg140
S''
sg141
S'tcp'
p2200
sg143
(dp2201
g145
(lp2202
ssg147
(dp2203
g149
S'table'
p2204
sg151
(lp2205
sg153
S'3'
sg77
S'unknown'
p2206
ssbag2
(g124
g4
NtRp2207
(dp2208
g127
S''
sg128
I6692
sg129
(lp2209
sg131
S'no-response'
p2210
sg133
(dp2211
g59
S'filtered'
p2212
sg65
g2210
sg136
S'0'
ssg137
S'0'
sg138
S''
sg139
S''
sg140
S''
sg141
S'tcp'
p2213
sg143
(dp2214
g145
(lp2215
ssg147
(dp2216
g149
S'table'
p2217
sg151
(lp2218
sg153
S'3'
sg77
S'unknown'
p2219
ssbag2
(g124
g4
NtRp2220
(dp2221
g127
S''
sg128
I8009
sg129
(lp2222
sg131
S'no-response'
p2223
sg133
(dp2224
g59
S'filtered'
p2225
sg65
g2223
sg136
S'0'
ssg137
S'0'
sg138
S''
sg139
S''
sg140
S''
sg141
S'tcp'
p2226
sg143
(dp2227
g145
(lp2228
ssg147
(dp2229
g149
S'table'
p2230
sg151
(lp2231
sg153
S'3'
sg77
S'ajp13'
p2232
ssbag2
(g124
g4
NtRp2233
(dp2234
g127
S''
sg128
I8010
sg129
(lp2235
sg131
S'no-response'
p2236
sg133
(dp2237
g59
S'filtered'
p2238
sg65
g2236
sg136
S'0'
ssg137
S'0'
sg138
S''
sg139
S''
sg140
S''
sg141
S'tcp'
p2239
sg143
(dp2240
g145
(lp2241
ssg147
(dp2242
g149
S'table'
p2243
sg151
(lp2244
sg153
S'3'
sg77
S'xmpp'
p2245
ssbag2
(g124
g4
NtRp2246
(dp2247
g127
S''
sg128
I8082
sg129
(lp2248
sg131
S'no-response'
p2249
sg133
(dp2250
g59
S'filtered'
p2251
sg65
g2249
sg136
S'0'
ssg137
S'0'
sg138
S''
sg139
S''
sg140
S''
sg141
S'tcp'
p2252
sg143
(dp2253
g145
(lp2254
ssg147
(dp2255
g149
S'table'
p2256
sg151
(lp2257
sg153
S'3'
sg77
S'blackice-alerts'
p2258
ssbag2
(g124
g4
NtRp2259
(dp2260
g127
S''
sg128
I8651
sg129
(lp2261
sg131
S'no-response'
p2262
sg133
(dp2263
g59
S'filtered'
p2264
sg65
g2262
sg136
S'0'
ssg137
S'0'
sg138
S''
sg139
S''
sg140
S''
sg141
S'tcp'
p2265
sg143
(dp2266
g145
(lp2267
ssg147
(dp2268
g149
S'table'
p2269
sg151
(lp2270
sg153
S'3'
sg77
S'unknown'
p2271
ssbag2
(g124
g4
NtRp2272
(dp2273
g127
S''
sg128
I9418
sg129
(lp2274
sg131
S'no-response'
p2275
sg133
(dp2276
g59
S'filtered'
p2277
sg65
g2275
sg136
S'0'
ssg137
S'0'
sg138
S''
sg139
S''
sg140
S''
sg141
S'tcp'
p2278
sg143
(dp2279
g145
(lp2280
ssg147
(dp2281
g149
S'table'
p2282
sg151
(lp2283
sg153
S'3'
sg77
S'git'
p2284
ssbag2
(g124
g4
NtRp2285
(dp2286
g127
S''
sg128
I10003
sg129
(lp2287
sg131
S'no-response'
p2288
sg133
(dp2289
g59
S'filtered'
p2290
sg65
g2288
sg136
S'0'
ssg137
S'0'
sg138
S''
sg139
S''
sg140
S''
sg141
S'tcp'
p2291
sg143
(dp2292
g145
(lp2293
ssg147
(dp2294
g149
S'table'
p2295
sg151
(lp2296
sg153
S'3'
sg77
S'documentum_s'
p2297
ssbag2
(g124
g4
NtRp2298
(dp2299
g127
S''
sg128
I11110
sg129
(lp2300
sg131
S'no-response'
p2301
sg133
(dp2302
g59
S'filtered'
p2303
sg65
g2301
sg136
S'0'
ssg137
S'0'
sg138
S''
sg139
S''
sg140
S''
sg141
S'tcp'
p2304
sg143
(dp2305
g145
(lp2306
ssg147
(dp2307
g149
S'table'
p2308
sg151
(lp2309
sg153
S'3'
sg77
S'unknown'
p2310
ssbag2
(g124
g4
NtRp2311
(dp2312
g127
S''
sg128
I12265
sg129
(lp2313
sg131
S'no-response'
p2314
sg133
(dp2315
g59
S'filtered'
p2316
sg65
g2314
sg136
S'0'
ssg137
S'0'
sg138
S''
sg139
S''
sg140
S''
sg141
S'tcp'
p2317
sg143
(dp2318
g145
(lp2319
ssg147
(dp2320
g149
S'table'
p2321
sg151
(lp2322
sg153
S'3'
sg77
S'unknown'
p2323
ssbag2
(g124
g4
NtRp2324
(dp2325
g127
S''
sg128
I16018
sg129
(lp2326
sg131
S'no-response'
p2327
sg133
(dp2328
g59
S'filtered'
p2329
sg65
g2327
sg136
S'0'
ssg137
S'0'
sg138
S''
sg139
S''
sg140
S''
sg141
S'tcp'
p2330
sg143
(dp2331
g145
(lp2332
ssg147
(dp2333
g149
S'table'
p2334
sg151
(lp2335
sg153
S'3'
sg77
S'unknown'
p2336
ssbag2
(g124
g4
NtRp2337
(dp2338
g127
S''
sg128
I16080
sg129
(lp2339
sg131
S'no-response'
p2340
sg133
(dp2341
g59
S'filtered'
p2342
sg65
g2340
sg136
S'0'
ssg137
S'0'
sg138
S''
sg139
S''
sg140
S''
sg141
S'tcp'
p2343
sg143
(dp2344
g145
(lp2345
ssg147
(dp2346
g149
S'table'
p2347
sg151
(lp2348
sg153
S'3'
sg77
S'osxwebadmin'
p2349
ssbag2
(g124
g4
NtRp2350
(dp2351
g127
S''
sg128
I20005
sg129
(lp2352
sg131
S'no-response'
p2353
sg133
(dp2354
g59
S'filtered'
p2355
sg65
g2353
sg136
S'0'
ssg137
S'0'
sg138
S''
sg139
S''
sg140
S''
sg141
S'tcp'
p2356
sg143
(dp2357
g145
(lp2358
ssg147
(dp2359
g149
S'table'
p2360
sg151
(lp2361
sg153
S'3'
sg77
S'btx'
p2362
ssbag2
(g124
g4
NtRp2363
(dp2364
g127
S''
sg128
I20221
sg129
(lp2365
sg131
S'no-response'
p2366
sg133
(dp2367
g59
S'filtered'
p2368
sg65
g2366
sg136
S'0'
ssg137
S'0'
sg138
S''
sg139
S''
sg140
S''
sg141
S'tcp'
p2369
sg143
(dp2370
g145
(lp2371
ssg147
(dp2372
g149
S'table'
p2373
sg151
(lp2374
sg153
S'3'
sg77
S'unknown'
p2375
ssbag2
(g124
g4
NtRp2376
(dp2377
g127
S''
sg128
I30951
sg129
(lp2378
sg131
S'no-response'
p2379
sg133
(dp2380
g59
S'filtered'
p2381
sg65
g2379
sg136
S'0'
ssg137
S'0'
sg138
S''
sg139
S''
sg140
S''
sg141
S'tcp'
p2382
sg143
(dp2383
g145
(lp2384
ssg147
(dp2385
g149
S'table'
p2386
sg151
(lp2387
sg153
S'3'
sg77
S'unknown'
p2388
ssbag2
(g124
g4
NtRp2389
(dp2390
g127
S''
sg128
I49153
sg129
(lp2391
sg131
S'no-response'
p2392
sg133
(dp2393
g59
S'filtered'
p2394
sg65
g2392
sg136
S'0'
ssg137
S'0'
sg138
S''
sg139
S''
sg140
S''
sg141
S'tcp'
p2395
sg143
(dp2396
g145
(lp2397
ssg147
(dp2398
g149
S'table'
p2399
sg151
(lp2400
sg153
S'3'
sg77
S'unknown'
p2401
ssbag2
(g124
g4
NtRp2402
(dp2403
g127
S''
sg128
I49161
sg129
(lp2404
sg131
S'no-response'
p2405
sg133
(dp2406
g59
S'filtered'
p2407
sg65
g2405
sg136
S'0'
ssg137
S'0'
sg138
S''
sg139
S''
sg140
S''
sg141
S'tcp'
p2408
sg143
(dp2409
g145
(lp2410
ssg147
(dp2411
g149
S'table'
p2412
sg151
(lp2413
sg153
S'3'
sg77
S'unknown'
p2414
ssbag2
(g124
g4
NtRp2415
(dp2416
g127
S''
sg128
I50500
sg129
(lp2417
sg131
S'no-response'
p2418
sg133
(dp2419
g59
S'filtered'
p2420
sg65
g2418
sg136
S'0'
ssg137
S'0'
sg138
S''
sg139
S''
sg140
S''
sg141
S'tcp'
p2421
sg143
(dp2422
g145
(lp2423
ssg147
(dp2424
g149
S'table'
p2425
sg151
(lp2426
sg153
S'3'
sg77
S'unknown'
p2427
ssbag2
(g124
g4
NtRp2428
(dp2429
g127
S''
sg128
I55600
sg129
(lp2430
sg131
S'no-response'
p2431
sg133
(dp2432
g59
S'filtered'
p2433
sg65
g2431
sg136
S'0'
ssg137
S'0'
sg138
S''
sg139
S''
sg140
S''
sg141
S'tcp'
p2434
sg143
(dp2435
g145
(lp2436
ssg147
(dp2437
g149
S'table'
p2438
sg151
(lp2439
sg153
S'3'
sg77
S'unknown'
p2440
ssbag2
(g124
g4
NtRp2441
(dp2442
g127
S''
sg128
I62078
sg129
(lp2443
sg131
S'syn-ack'
p2444
sg133
(dp2445
g59
S'open'
p2446
sg65
g2444
sg136
S'64'
p2447
ssg137
g2447
sg138
S''
sg139
S''
sg140
S''
sg141
S'tcp'
p2448
sg143
(dp2449
g145
(lp2450
ssg147
(dp2451
g149
S'table'
p2452
sg151
(lp2453
sg153
S'3'
sg77
S'iphone-sync'
p2454
ssbasg797
S'1513128233'
p2455
sg799
S'1513128321'
p2456
sg801
(lp2457
sg803
Nsg804
g1469
sg805
g1472
sg806
g1469
sg807
(dp2458
g59
S'up'
p2459
sg65
S'arp-response'
p2460
sg136
S'0'
ssg811
g2
(g812
g4
NtRp2461
(dp2462
g815
(lp2463
g1747
asg817
(lp2464
g2
(g819
g4
NtRp2465
(dp2466
g822
g1501
sg823
g1503
sg824
(lp2467
g2
(g826
g4
NtRp2468
(dp2469
g829
g1509
sg129
(lp2470
g2
(g831
g4
NtRp2471
(dp2472
g834
(dp2473
sg836
g1513
sg837
(dp2474
g839
S'iphone_os'
p2475
sg841
S'apple'
p2476
sg843
S''
sg94
S'cpe'
p2477
sg845
S''
sg846
S''
sg847
S'5'
sg848
S'/o'
p2478
ssbasg823
g1511
sg803
g1507
sg850
g1508
sg851
g1510
sbasg852
g1502
sbag2
(g819
g4
NtRp2479
(dp2480
g822
g1516
sg823
g1518
sg824
(lp2481
g2
(g826
g4
NtRp2482
(dp2483
g829
g1524
sg129
(lp2484
g2
(g831
g4
NtRp2485
(dp2486
g834
(dp2487
sg836
g1528
sg837
(dp2488
g839
S'apple_tv'
p2489
sg841
S'apple'
p2490
sg843
S''
sg94
S'cpe'
p2491
sg845
S''
sg846
S''
sg847
S'5.2.1'
p2492
sg848
S'/a'
p2493
ssbag2
(g831
g4
NtRp2494
(dp2495
g834
(dp2496
sg836
g1529
sg837
(dp2497
g839
S'apple_tv'
p2498
sg841
S'apple'
p2499
sg843
S''
sg94
S'cpe'
p2500
sg845
S''
sg846
S''
sg847
S'5.3'
p2501
sg848
S'/a'
p2502
ssbasg823
g1526
sg803
g1522
sg850
g1523
sg851
g1525
sbasg852
g1517
sbag2
(g819
g4
NtRp2503
(dp2504
g822
g1532
sg823
g1534
sg824
(lp2505
g2
(g826
g4
NtRp2506
(dp2507
g829
g1540
sg129
(lp2508
g2
(g831
g4
NtRp2509
(dp2510
g834
(dp2511
sg836
g1544
sg837
(dp2512
g839
S'iphone_os'
p2513
sg841
S'apple'
p2514
sg843
S''
sg94
S'cpe'
p2515
sg845
S''
sg846
S''
sg847
S'5.0.1'
p2516
sg848
S'/o'
p2517
ssbasg823
g1542
sg803
g1538
sg850
g1539
sg851
g1541
sbag2
(g826
g4
NtRp2518
(dp2519
g829
g1549
sg129
(lp2520
g2
(g831
g4
NtRp2521
(dp2522
g834
(dp2523
sg836
g1553
sg837
(dp2524
g839
S'iphone_os'
p2525
sg841
S'apple'
p2526
sg843
S''
sg94
S'cpe'
p2527
sg845
S''
sg846
S''
sg847
S'5.0.1'
p2528
sg848
S'/o'
p2529
ssbasg823
g1551
sg803
g1547
sg850
g1548
sg851
g1550
sbasg852
g1533
sbag2
(g819
g4
NtRp2530
(dp2531
g822
g1556
sg823
g1558
sg824
(lp2532
g2
(g826
g4
NtRp2533
(dp2534
g829
g1564
sg129
(lp2535
g2
(g831
g4
NtRp2536
(dp2537
g834
(dp2538
sg836
g1568
sg837
(dp2539
g839
S'iphone_os'
p2540
sg841
S'apple'
p2541
sg843
S''
sg94
S'cpe'
p2542
sg845
S''
sg846
S''
sg847
S'6.0.1'
p2543
sg848
S'/o'
p2544
ssbasg823
g1566
sg803
g1562
sg850
g1563
sg851
g1565
sbasg852
g1557
sbag2
(g819
g4
NtRp2545
(dp2546
g822
g1571
sg823
g1573
sg824
(lp2547
g2
(g826
g4
NtRp2548
(dp2549
g829
g1579
sg129
(lp2550
g2
(g831
g4
NtRp2551
(dp2552
g834
(dp2553
sg836
g1583
sg837
(dp2554
g839
S'iphone_os'
p2555
sg841
S'apple'
p2556
sg843
S''
sg94
S'cpe'
p2557
sg845
S''
sg846
S''
sg847
S'6.1.4'
p2558
sg848
S'/o'
p2559
ssbasg823
g1581
sg803
g1577
sg850
g1578
sg851
g1580
sbasg852
g1572
sbag2
(g819
g4
NtRp2560
(dp2561
g822
g1586
sg823
g1588
sg824
(lp2562
g2
(g826
g4
NtRp2563
(dp2564
g829
g1594
sg129
(lp2565
g2
(g831
g4
NtRp2566
(dp2567
g834
(dp2568
sg836
g1598
sg837
(dp2569
g839
S'iphone_os'
p2570
sg841
S'apple'
p2571
sg843
S''
sg94
S'cpe'
p2572
sg845
S''
sg846
S''
sg847
S'7'
sg848
S'/o'
p2573
ssbasg823
g1596
sg803
g1592
sg850
g1593
sg851
g1595
sbasg852
g1587
sbag2
(g819
g4
NtRp2574
(dp2575
g822
g1601
sg823
g1603
sg824
(lp2576
g2
(g826
g4
NtRp2577
(dp2578
g829
g1609
sg129
(lp2579
g2
(g831
g4
NtRp2580
(dp2581
g834
(dp2582
sg836
g1613
sg837
(dp2583
g839
S'mac_os_x'
p2584
sg841
S'apple'
p2585
sg843
S''
sg94
S'cpe'
p2586
sg845
S''
sg846
S''
sg847
S'10.10.2'
p2587
sg848
S'/o'
p2588
ssbasg823
g1611
sg803
g1607
sg850
g1608
sg851
g1610
sbasg852
g1602
sbag2
(g819
g4
NtRp2589
(dp2590
g822
g1616
sg823
g1618
sg824
(lp2591
g2
(g826
g4
NtRp2592
(dp2593
g829
g1624
sg129
(lp2594
g2
(g831
g4
NtRp2595
(dp2596
g834
(dp2597
sg836
g1628
sg837
(dp2598
g839
S'mac_os_x'
p2599
sg841
S'apple'
p2600
sg843
S''
sg94
S'cpe'
p2601
sg845
S''
sg846
S''
sg847
S'10.10.3'
p2602
sg848
S'/o'
p2603
ssbasg823
g1626
sg803
g1622
sg850
g1623
sg851
g1625
sbasg852
g1617
sbag2
(g819
g4
NtRp2604
(dp2605
g822
g1631
sg823
g1633
sg824
(lp2606
g2
(g826
g4
NtRp2607
(dp2608
g829
g1639
sg129
(lp2609
g2
(g831
g4
NtRp2610
(dp2611
g834
(dp2612
sg836
g1643
sg837
(dp2613
g839
S'mac_os_x'
p2614
sg841
S'apple'
p2615
sg843
S''
sg94
S'cpe'
p2616
sg845
S''
sg846
S''
sg847
S'10.7'
p2617
sg848
S'/o'
p2618
ssbasg823
g1641
sg803
g1637
sg850
g1638
sg851
g1640
sbag2
(g826
g4
NtRp2619
(dp2620
g829
g1648
sg129
(lp2621
g2
(g831
g4
NtRp2622
(dp2623
g834
(dp2624
sg836
g1652
sg837
(dp2625
g839
S'mac_os_x'
p2626
sg841
S'apple'
p2627
sg843
S''
sg94
S'cpe'
p2628
sg845
S''
sg846
S''
sg847
S'10.8'
p2629
sg848
S'/o'
p2630
ssbasg823
g1650
sg803
g1646
sg850
g1647
sg851
g1649
sbag2
(g826
g4
NtRp2631
(dp2632
g829
g1657
sg129
(lp2633
g2
(g831
g4
NtRp2634
(dp2635
g834
(dp2636
sg836
g1661
sg837
(dp2637
g839
S'mac_os_x'
p2638
sg841
S'apple'
p2639
sg843
S''
sg94
S'cpe'
p2640
sg845
S''
sg846
S''
sg847
S'10.9'
p2641
sg848
S'/o'
p2642
ssbasg823
g1659
sg803
g1655
sg850
g1656
sg851
g1658
sbag2
(g826
g4
NtRp2643
(dp2644
g829
g1666
sg129
(lp2645
g2
(g831
g4
NtRp2646
(dp2647
g834
(dp2648
sg836
g1670
sg837
(dp2649
g839
S'iphone_os'
p2650
sg841
S'apple'
p2651
sg843
S''
sg94
S'cpe'
p2652
sg845
S''
sg846
S''
sg847
S'4'
sg848
S'/o'
p2653
ssbag2
(g831
g4
NtRp2654
(dp2655
g834
(dp2656
sg836
g1671
sg837
(dp2657
g839
S'apple_tv'
p2658
sg841
S'apple'
p2659
sg843
S''
sg94
S'cpe'
p2660
sg845
S''
sg846
S''
sg847
S'4'
sg848
S'/a'
p2661
ssbasg823
g1668
sg803
g1664
sg850
g1665
sg851
g1667
sbag2
(g826
g4
NtRp2662
(dp2663
g829
g1676
sg129
(lp2664
g2
(g831
g4
NtRp2665
(dp2666
g834
(dp2667
sg836
g1680
sg837
(dp2668
g839
S'iphone_os'
p2669
sg841
S'apple'
p2670
sg843
S''
sg94
S'cpe'
p2671
sg845
S''
sg846
S''
sg847
S'4'
sg848
S'/o'
p2672
ssbasg823
g1678
sg803
g1674
sg850
g1675
sg851
g1677
sbag2
(g826
g4
NtRp2673
(dp2674
g829
g1685
sg129
(lp2675
g2
(g831
g4
NtRp2676
(dp2677
g834
(dp2678
sg836
g1689
sg837
(dp2679
g839
S'iphone_os'
p2680
sg841
S'apple'
p2681
sg843
S''
sg94
S'cpe'
p2682
sg845
S''
sg846
S''
sg847
S'5'
sg848
S'/o'
p2683
ssbasg823
g1687
sg803
g1683
sg850
g1684
sg851
g1686
sbag2
(g826
g4
NtRp2684
(dp2685
g829
g1694
sg129
(lp2686
g2
(g831
g4
NtRp2687
(dp2688
g834
(dp2689
sg836
g1698
sg837
(dp2690
g839
S'iphone_os'
p2691
sg841
S'apple'
p2692
sg843
S''
sg94
S'cpe'
p2693
sg845
S''
sg846
S''
sg847
S'6'
sg848
S'/o'
p2694
ssbasg823
g1696
sg803
g1692
sg850
g1693
sg851
g1695
sbag2
(g826
g4
NtRp2695
(dp2696
g829
g1703
sg129
(lp2697
g2
(g831
g4
NtRp2698
(dp2699
g834
(dp2700
sg836
g1707
sg837
(dp2701
g839
S'iphone_os'
p2702
sg841
S'apple'
p2703
sg843
S''
sg94
S'cpe'
p2704
sg845
S''
sg846
S''
sg847
S'7'
sg848
S'/o'
p2705
ssbasg823
g1705
sg803
g1701
sg850
g1702
sg851
g1704
sbag2
(g826
g4
NtRp2706
(dp2707
g829
g1712
sg129
(lp2708
g2
(g831
g4
NtRp2709
(dp2710
g834
(dp2711
sg836
g1716
sg837
(dp2712
g839
S'iphone_os'
p2713
sg841
S'apple'
p2714
sg843
S''
sg94
S'cpe'
p2715
sg845
S''
sg846
S''
sg847
S'8'
sg848
S'/o'
p2716
ssbasg823
g1714
sg803
g1710
sg850
g1711
sg851
g1713
sbasg852
g1632
sbag2
(g819
g4
NtRp2717
(dp2718
g822
g1719
sg823
g1721
sg824
(lp2719
g2
(g826
g4
NtRp2720
(dp2721
g829
g1727
sg129
(lp2722
g2
(g831
g4
NtRp2723
(dp2724
g834
(dp2725
sg836
g1731
sg837
(dp2726
g839
S'mac_os_x'
p2727
sg841
S'apple'
p2728
sg843
S''
sg94
S'cpe'
p2729
sg845
S''
sg846
S''
sg847
S'10.7'
p2730
sg848
S'/o'
p2731
ssbasg823
g1729
sg803
g1725
sg850
g1726
sg851
g1728
sbasg852
g1720
sbasg853
(lp2732
g2
(g855
g4
NtRp2733
(dp2734
g133
g1734
sg858
g1736
sg128
g1735
sbag2
(g855
g4
NtRp2735
(dp2736
g133
g1738
sg858
g1739
sg128
S'1'
sbag2
(g855
g4
NtRp2737
(dp2738
g133
g1741
sg858
g1743
sg128
g1742
sbasbsbag2
(g3
g4
NtRp2739
(dp2740
g7
I01
sg8
(lp2741
(dp2742
g11
S'ipv4'
p2743
sg13
S'160.39.10.71'
p2744
sasg20
Nsg21
(dp2745
g23
(dp2746
g25
S'0'
ssg26
(dp2747
g28
S'18423'
p2748
sg30
S'Tue Dec 12 15:18:22 2017'
p2749
ssg32
(dp2750
g34
S'100000'
p2751
sg36
S'6'
sg38
S'6'
ssg40
(dp2752
g42
S'259'
p2753
sg44
S'967D1D1C,4EE1A05D,55467958,6FF1FDE2,9FCF1441,F6D9C8EE'
p2754
sg46
S'Good luck!'
p2755
ssg48
(dp2756
g44
S'46459D,4645B6,4645CF,4645E8,464601,46461A'
p2757
sg51
S'other'
p2758
ssg53
(dp2759
g55
(dp2760
g57
S'998'
p2761
sg59
S'closed'
p2762
ssg61
(lp2763
(dp2764
g57
S'998'
p2765
sg65
S'resets'
p2766
sasg67
g2760
ssg68
(dp2767
g70
(lp2768
(dp2769
g73
(dp2770
g75
S'57420'
p2771
sg77
S'Linux 3.12 - 3.19'
p2772
sg79
S'100'
p2773
ssg81
(lp2774
(dp2775
g84
(dp2776
g17
S'Linux'
p2777
sg87
S'Linux'
p2778
sg89
S'general purpose'
p2779
sg91
S'3.X'
p2780
sg79
S'100'
p2781
ssg94
(lp2782
S'cpe:/o:linux:linux_kernel:3'
p2783
asasa(dp2784
g73
(dp2785
g75
S'59486'
p2786
sg77
S'Linux 3.8 - 3.19'
p2787
sg79
S'100'
p2788
ssg81
(lp2789
(dp2790
g84
(dp2791
g17
S'Linux'
p2792
sg87
S'Linux'
p2793
sg89
S'general purpose'
p2794
sg91
S'3.X'
p2795
sg79
S'100'
p2796
ssg94
(lp2797
S'cpe:/o:linux:linux_kernel:3'
p2798
asasasg97
(lp2799
(dp2800
g59
S'open'
p2801
sg101
S'902'
p2802
sg103
S'tcp'
p2803
sa(dp2804
g59
S'closed'
p2805
sg101
S'1'
sg103
S'tcp'
p2806
sa(dp2807
g59
S'closed'
p2808
sg101
S'33716'
p2809
sg103
S'udp'
p2810
sasg81
(lp2811
sg113
(lp2812
(dp2813
g116
S'OS:SCAN(V=7.01%E=4%D=12/12%OT=902%CT=1%CU=33716%PV=N%DS=0%DC=L%G=Y%TM=5A308\nOS:185%P=x86_64-pc-linux-gnu)SEQ(SP=103%GCD=1%ISR=107%TI=Z%CI=I%TS=8)OPS(O1\nOS:=MFFD7ST11NW7%O2=MFFD7ST11NW7%O3=MFFD7NNT11NW7%O4=MFFD7ST11NW7%O5=MFFD7S\nOS:T11NW7%O6=MFFD7ST11)WIN(W1=AAAA%W2=AAAA%W3=AAAA%W4=AAAA%W5=AAAA%W6=AAAA)\nOS:ECN(R=Y%DF=Y%T=40%W=AAAA%O=MFFD7NNSNW7%CC=Y%Q=)T1(R=Y%DF=Y%T=40%S=O%A=S+\nOS:%F=AS%RD=0%Q=)T2(R=N)T3(R=N)T4(R=Y%DF=Y%T=40%W=0%S=A%A=Z%F=R%O=%RD=0%Q=)\nOS:T5(R=Y%DF=Y%T=40%W=0%S=Z%A=S+%F=AR%O=%RD=0%Q=)T6(R=Y%DF=Y%T=40%W=0%S=A%A\nOS:=Z%F=R%O=%RD=0%Q=)T7(R=Y%DF=Y%T=40%W=0%S=Z%A=S+%F=AR%O=%RD=0%Q=)U1(R=Y%D\nOS:F=N%T=40%IPL=164%UN=0%RIPL=G%RID=G%RIPCK=G%RUCK=G%RUD=G)IE(R=Y%DFI=N%T=4\nOS:0%CD=S)\n'
p2814
sassg118
(dp2815
g44
S'0,0,0,0,0,0'
p2816
sg51
S'All zeros'
p2817
sssg122
(lp2818
g2
(g124
g4
NtRp2819
(dp2820
g127
S''
sg128
I902
sg129
(lp2821
sg131
S'syn-ack'
p2822
sg133
(dp2823
g59
S'open'
p2824
sg65
g2822
sg136
S'64'
p2825
ssg137
g2825
sg138
S''
sg139
S''
sg140
S''
sg141
S'tcp'
p2826
sg143
(dp2827
g145
(lp2828
ssg147
(dp2829
g149
S'table'
p2830
sg151
(lp2831
sg153
S'3'
sg77
S'iss-realsecure'
p2832
ssbag2
(g124
g4
NtRp2833
(dp2834
g127
S''
sg128
I5009
sg129
(lp2835
sg131
S'syn-ack'
p2836
sg133
(dp2837
g59
S'open'
p2838
sg65
g2836
sg136
S'64'
p2839
ssg137
g2839
sg138
S''
sg139
S''
sg140
S''
sg141
S'tcp'
p2840
sg143
(dp2841
g145
(lp2842
ssg147
(dp2843
g149
S'table'
p2844
sg151
(lp2845
sg153
S'3'
sg77
S'airport-admin'
p2846
ssbasg797
S'1513128321'
p2847
sg799
S'1513128325'
p2848
sg801
(lp2849
sg803
Nsg804
g2744
sg805
Nsg806
g2744
sg807
(dp2850
g59
S'up'
p2851
sg65
S'user-set'
p2852
sg136
S'0'
ssg811
g2
(g812
g4
NtRp2853
(dp2854
g815
(lp2855
g2814
asg817
(lp2856
g2
(g819
g4
NtRp2857
(dp2858
g822
g2771
sg823
g2773
sg824
(lp2859
g2
(g826
g4
NtRp2860
(dp2861
g829
g2779
sg129
(lp2862
g2
(g831
g4
NtRp2863
(dp2864
g834
(dp2865
sg836
g2783
sg837
(dp2866
g839
S'linux_kernel'
p2867
sg841
S'linux'
p2868
sg843
S''
sg94
S'cpe'
p2869
sg845
S''
sg846
S''
sg847
S'3'
sg848
S'/o'
p2870
ssbasg823
g2781
sg803
g2777
sg850
g2778
sg851
g2780
sbasg852
g2772
sbag2
(g819
g4
NtRp2871
(dp2872
g822
g2786
sg823
g2788
sg824
(lp2873
g2
(g826
g4
NtRp2874
(dp2875
g829
g2794
sg129
(lp2876
g2
(g831
g4
NtRp2877
(dp2878
g834
(dp2879
sg836
g2798
sg837
(dp2880
g839
S'linux_kernel'
p2881
sg841
S'linux'
p2882
sg843
S''
sg94
S'cpe'
p2883
sg845
S''
sg846
S''
sg847
S'3'
sg848
S'/o'
p2884
ssbasg823
g2796
sg803
g2792
sg850
g2793
sg851
g2795
sbasg852
g2787
sbasg853
(lp2885
g2
(g855
g4
NtRp2886
(dp2887
g133
g2801
sg858
g2803
sg128
g2802
sbag2
(g855
g4
NtRp2888
(dp2889
g133
g2805
sg858
g2806
sg128
S'1'
sbag2
(g855
g4
NtRp2890
(dp2891
g133
g2808
sg858
g2810
sg128
g2809
sbasbsbag2
(g3
g4
NtRp2892
(dp2893
g7
I01
sg8
(lp2894
(dp2895
S'addrtype'
p2896
S'ipv4'
p2897
sS'addr'
p2898
S'169.30.11.23'
p2899
sasg20
Nsg21
(dp2900
S'extraports'
p2901
(dp2902
S'count'
p2903
(dp2904
S'count'
p2905
S'1000'
p2906
sS'state'
p2907
S'filtered'
p2908
ssS'reasons'
p2909
(lp2910
(dp2911
g2905
S'1000'
p2912
sS'reason'
p2913
S'no-responses'
p2914
sasS'state'
p2915
g2904
ssg811
(dp2916
S'osmatches'
p2917
(lp2918
sS'ports_used'
p2919
(lp2920
sS'osfingerprints'
p2921
(lp2922
(dp2923
S'fingerprint'
p2924
S'SCAN(V=7.01%E=4%D=12/12%OT=%CT=%CU=%PV=N%G=N%TM=5A3082AD%P=x86_64-pc-linux-gnu)\nU1(R=N)\nIE(R=N)\n'
p2925
sasS'osclasses'
p2926
(lp2927
sssg122
(lp2928
sg797
S'1513128514'
p2929
sg799
S'1513128621'
p2930
sg801
(lp2931
sg803
Nsg804
g2899
sg805
Nsg806
g2899
sg807
(dp2932
g2907
S'up'
p2933
sg2913
S'user-set'
p2934
sS'reason_ttl'
p2935
S'0'
ssg811
g2
(g812
g4
NtRp2936
(dp2937
g815
(lp2938
g2925
asg817
(lp2939
sg853
(lp2940
sbsba.