(lp1
ccopy_reg
_reconstructor
p2
(clibnmap.objects.host
NmapHost
p3
c__builtin__
object
p4
NtRp5
(dp6
S'_osfingerprinted'
p7
I00
sS'_address'
p8
(lp9
(dp10
S'addrtype'
p11
S'ipv4'
p12
sS'addr'
p13
S'192.168.0.8'
p14
sasS'_ipv6_addr'
p15
NsS'_extras'
p16
(dp17
sS'_services'
p18
(lp19
sS'_starttime'
p20
S''
sS'_endtime'
p21
S''
sS'_hostnames'
p22
(lp23
sS'_vendor'
p24
NsS'_ipv4_addr'
p25
g14
sS'_mac_addr'
p26
NsS'_main_address'
p27
g14
sS'_status'
p28
(dp29
S'state'
p30
S'down'
p31
sS'reason'
p32
S'no-response'
p33
sS'reason_ttl'
p34
S'0'
ssS'os'
p35
g2
(clibnmap.objects.os
NmapOSFingerprint
p36
g4
NtRp37
(dp38
S'_NmapOSFingerprint__fingerprints'
p39
(lp40
sS'_NmapOSFingerprint__osmatches'
p41
(lp42
sS'_NmapOSFingerprint__ports_used'
p43
(lp44
sbsbag2
(g3
g4
NtRp45
(dp46
g7
I01
sg8
(lp47
(dp48
g11
S'ipv4'
p49
sg13
S'192.168.0.1'
p50
sa(dp51
g11
S'mac'
p52
sS'vendor'
p53
S'Arris Group'
p54
sg13
S'38:4C:90:7D:92:E7'
p55
sasg15
Nsg16
(dp56
S'distance'
p57
(dp58
S'value'
p59
S'1'
ssS'uptime'
p60
(dp61
S'seconds'
p62
S'1921204'
p63
sS'lastboot'
p64
S'Thu Nov 16 00:17:42 2017'
p65
ssS'times'
p66
(dp67
S'to'
p68
S'100000'
p69
sS'srtt'
p70
S'7174'
p71
sS'rttvar'
p72
S'3682'
p73
ssS'tcpsequence'
p74
(dp75
S'index'
p76
S'199'
p77
sS'values'
p78
S'9C15746A,9C57CE1A,9BFE6B26,9C5A1128,9D0DF1ED,9C794AD3'
p79
sS'difficulty'
p80
S'Good luck!'
p81
ssS'tcptssequence'
p82
(dp83
g78
S'B7385AE,B7385B8,B7385C2,B7385CB,B7385D6,B7385E0'
p84
sS'class'
p85
S'100HZ'
p86
ssS'extraports'
p87
(dp88
S'count'
p89
(dp90
S'count'
p91
S'995'
p92
sg30
S'closed'
p93
ssS'reasons'
p94
(lp95
(dp96
g91
S'995'
p97
sg32
S'resets'
p98
sasS'state'
p99
g90
ssS'os'
p100
(dp101
S'osmatches'
p102
(lp103
(dp104
S'osmatch'
p105
(dp106
S'line'
p107
S'50925'
p108
sS'name'
p109
S'Linux 2.6.32 - 3.5'
p110
sS'accuracy'
p111
S'98'
p112
ssS'osclasses'
p113
(lp114
(dp115
S'osclass'
p116
(dp117
S'type'
p118
S'general purpose'
p119
sS'osfamily'
p120
S'Linux'
p121
sg53
S'Linux'
p122
sS'osgen'
p123
S'2.6.X'
p124
sg111
S'98'
p125
ssS'cpe'
p126
(lp127
S'cpe:/o:linux:linux_kernel:2.6'
p128
asa(dp129
g116
(dp130
g118
S'general purpose'
p131
sg120
S'Linux'
p132
sg53
S'Linux'
p133
sg123
S'3.X'
p134
sg111
S'98'
p135
ssg126
(lp136
S'cpe:/o:linux:linux_kernel:3'
p137
asasa(dp138
g105
(dp139
g107
S'52167'
p140
sg109
S'Linux 2.6.38 - 3.0'
p141
sg111
S'97'
p142
ssg113
(lp143
(dp144
g116
(dp145
g118
S'general purpose'
p146
sg120
S'Linux'
p147
sg53
S'Linux'
p148
sg123
S'2.6.X'
p149
sg111
S'97'
p150
ssg126
(lp151
S'cpe:/o:linux:linux_kernel:2.6'
p152
asa(dp153
g116
(dp154
g118
S'general purpose'
p155
sg120
S'Linux'
p156
sg53
S'Linux'
p157
sg123
S'3.X'
p158
sg111
S'97'
p159
ssg126
(lp160
S'cpe:/o:linux:linux_kernel:3'
p161
asasa(dp162
g105
(dp163
g107
S'39010'
p164
sg109
S'Linksys WRV54G WAP'
p165
sg111
S'96'
p166
ssg113
(lp167
(dp168
g116
(dp169
g118
S'WAP'
p170
sg120
S'embedded'
p171
sg53
S'Linksys'
p172
sg111
S'96'
p173
ssg126
(lp174
S'cpe:/h:linksys:wrv54g'
p175
asasa(dp176
g105
(dp177
g107
S'90707'
p178
sg109
S'Ubee EVW3226 or Arris TG1672 cable modem (Linux 2.6.18)'
p179
sg111
S'96'
p180
ssg113
(lp181
(dp182
g116
(dp183
g118
S'WAP'
p184
sg120
S'embedded'
p185
sg53
S'Ubee'
p186
sg111
S'96'
p187
ssg126
(lp188
S'cpe:/h:ubee:evw3226'
p189
asa(dp190
g116
(dp191
g118
S'WAP'
p192
sg120
S'embedded'
p193
sg53
S'Arris'
p194
sg111
S'96'
p195
ssg126
(lp196
S'cpe:/h:arris:tg1672'
p197
asa(dp198
g116
(dp199
g118
S'general purpose'
p200
sg120
S'Linux'
p201
sg53
S'Linux'
p202
sg123
S'2.6.X'
p203
sg111
S'96'
p204
ssg126
(lp205
S'cpe:/o:linux:linux_kernel:2.6.18'
p206
asasa(dp207
g105
(dp208
g107
S'38366'
p209
sg109
S'Linksys RV042 router'
p210
sg111
S'96'
p211
ssg113
(lp212
(dp213
g116
(dp214
g118
S'router'
p215
sg120
S'embedded'
p216
sg53
S'Linksys'
p217
sg111
S'96'
p218
ssg126
(lp219
S'cpe:/h:linksys:rv042'
p220
asasa(dp221
g105
(dp222
g107
S'26756'
p223
sg109
S'Android 2.1-update1 (Linux 2.6.29)'
p224
sg111
S'96'
p225
ssg113
(lp226
(dp227
g116
(dp228
g118
S'phone'
p229
sg120
S'Android'
p230
sg53
S'Google'
p231
sg123
S'2.X'
p232
sg111
S'96'
p233
ssg126
(lp234
S'cpe:/o:google:android:2.1'
p235
asa(dp236
g116
(dp237
g118
S'phone'
p238
sg120
S'Linux'
p239
sg53
S'Linux'
p240
sg123
S'2.6.X'
p241
sg111
S'96'
p242
ssg126
(lp243
S'cpe:/o:linux:linux_kernel:2.6.29'
p244
aS'cpe:/o:google:android:2.1:rev1'
p245
asasa(dp246
g105
(dp247
g107
S'53435'
p248
sg109
S'Linux 2.6.9 - 2.6.33'
p249
sg111
S'96'
p250
ssg113
(lp251
(dp252
g116
(dp253
g118
S'general purpose'
p254
sg120
S'Linux'
p255
sg53
S'Linux'
p256
sg123
S'2.6.X'
p257
sg111
S'96'
p258
ssg126
(lp259
S'cpe:/o:linux:linux_kernel:2.6'
p260
asasa(dp261
g105
(dp262
g107
S'50721'
p263
sg109
S'Linux 2.6.32 - 3.10'
p264
sg111
S'95'
p265
ssg113
(lp266
(dp267
g116
(dp268
g118
S'general purpose'
p269
sg120
S'Linux'
p270
sg53
S'Linux'
p271
sg123
S'2.6.X'
p272
sg111
S'95'
p273
ssg126
(lp274
S'cpe:/o:linux:linux_kernel:2.6'
p275
asa(dp276
g116
(dp277
g118
S'general purpose'
p278
sg120
S'Linux'
p279
sg53
S'Linux'
p280
sg123
S'3.X'
p281
sg111
S'95'
p282
ssg126
(lp283
S'cpe:/o:linux:linux_kernel:3'
p284
asasa(dp285
g105
(dp286
g107
S'45939'
p287
sg109
S'Linux 2.6.22 (embedded, ARM)'
p288
sg111
S'95'
p289
ssg113
(lp290
(dp291
g116
(dp292
g118
S'general purpose'
p293
sg120
S'Linux'
p294
sg53
S'Linux'
p295
sg123
S'2.6.X'
p296
sg111
S'95'
p297
ssg126
(lp298
S'cpe:/o:linux:linux_kernel:2.6.22'
p299
asasa(dp300
g105
(dp301
g107
S'46188'
p302
sg109
S'Linux 2.6.22 - 2.6.23'
p303
sg111
S'95'
p304
ssg113
(lp305
(dp306
g116
(dp307
g118
S'general purpose'
p308
sg120
S'Linux'
p309
sg53
S'Linux'
p310
sg123
S'2.6.X'
p311
sg111
S'95'
p312
ssg126
(lp313
S'cpe:/o:linux:linux_kernel:2.6'
p314
asasasS'ports_used'
p315
(lp316
(dp317
g30
S'open'
p318
sS'portid'
p319
S'80'
p320
sS'proto'
p321
S'tcp'
p322
sa(dp323
g30
S'closed'
p324
sg319
S'1'
sg321
S'tcp'
p325
sa(dp326
g30
S'closed'
p327
sg319
S'44237'
p328
sg321
S'udp'
p329
sasS'osfingerprints'
p330
(lp331
(dp332
S'fingerprint'
p333
S'OS:SCAN(V=7.01%E=4%D=12/8%OT=80%CT=1%CU=44237%PV=Y%DS=1%DC=D%G=Y%M=384C90%T\nOS:M=5A2A702A%P=x86_64-pc-linux-gnu)SEQ(SP=C7%GCD=1%ISR=D1%TI=Z%CI=Z%TS=7)O\nOS:PS(O1=M5B4ST11NW2%O2=M5B4ST11NW2%O3=M5B4NNT11NW2%O4=M5B4ST11NW2%O5=M5B4S\nOS:T11NW2%O6=M5B4ST11)WIN(W1=3890%W2=3890%W3=3890%W4=3890%W5=3890%W6=3890)E\nOS:CN(R=Y%DF=Y%T=40%W=3908%O=M5B4NNSNW2%CC=N%Q=)T1(R=Y%DF=Y%T=40%S=O%A=S+%F\nOS:=AS%RD=0%Q=)T2(R=N)T3(R=Y%DF=Y%T=40%W=3890%S=O%A=S+%F=AS%O=M5B4ST11NW2%R\nOS:D=0%Q=)T4(R=Y%DF=Y%T=40%W=0%S=A%A=Z%F=R%O=%RD=0%Q=)T5(R=Y%DF=Y%T=40%W=0%\nOS:S=Z%A=S+%F=AR%O=%RD=0%Q=)T6(R=Y%DF=Y%T=40%W=0%S=A%A=Z%F=R%O=%RD=0%Q=)T7(\nOS:R=Y%DF=Y%T=40%W=0%S=Z%A=S+%F=AR%O=%RD=0%Q=)U1(R=Y%DF=N%T=40%IPL=164%UN=0\nOS:%RIPL=G%RID=G%RIPCK=G%RUCK=G%RUD=G)IE(R=Y%DFI=N%T=40%CD=S)\n'
p334
sasg113
(lp335
ssS'ipidsequence'
p336
(dp337
g78
S'0,0,0,0,0,0'
p338
sg85
S'All zeros'
p339
sssg18
(lp340
g2
(clibnmap.objects.service
NmapService
p341
g4
NtRp342
(dp343
S'_tunnel'
p344
S''
sS'_portid'
p345
I80
sS'_cpelist'
p346
(lp347
sS'_reason'
p348
S'syn-ack'
p349
sS'_state'
p350
(dp351
g30
S'open'
p352
sg32
g349
sg34
S'64'
p353
ssS'_reason_ttl'
p354
g353
sS'_owner'
p355
S''
sS'_reason_ip'
p356
S''
sS'_servicefp'
p357
S''
sS'_protocol'
p358
S'tcp'
p359
sS'_service_extras'
p360
(dp361
S'scripts'
p362
(lp363
ssS'_service'
p364
(dp365
g109
S'http'
p366
sS'method'
p367
S'table'
p368
sS'conf'
p369
S'3'
sS'cpelist'
p370
(lp371
ssbag2
(g341
g4
NtRp372
(dp373
g344
S''
sg345
I443
sg346
(lp374
sg348
S'syn-ack'
p375
sg350
(dp376
g30
S'open'
p377
sg32
g375
sg34
S'64'
p378
ssg354
g378
sg355
S''
sg356
S''
sg357
S''
sg358
S'tcp'
p379
sg360
(dp380
g362
(lp381
ssg364
(dp382
g109
S'https'
p383
sg367
S'table'
p384
sg369
S'3'
sg370
(lp385
ssbag2
(g341
g4
NtRp386
(dp387
g344
S''
sg345
I5000
sg346
(lp388
sg348
S'syn-ack'
p389
sg350
(dp390
g30
S'open'
p391
sg32
g389
sg34
S'64'
p392
ssg354
g392
sg355
S''
sg356
S''
sg357
S''
sg358
S'tcp'
p393
sg360
(dp394
g362
(lp395
ssg364
(dp396
g109
S'upnp'
p397
sg367
S'table'
p398
sg369
S'3'
sg370
(lp399
ssbag2
(g341
g4
NtRp400
(dp401
g344
S''
sg345
I8081
sg346
(lp402
sg348
S'no-response'
p403
sg350
(dp404
g30
S'filtered'
p405
sg32
g403
sg34
S'0'
ssg354
S'0'
sg355
S''
sg356
S''
sg357
S''
sg358
S'tcp'
p406
sg360
(dp407
g362
(lp408
ssg364
(dp409
g109
S'blackice-icecap'
p410
sg367
S'table'
p411
sg369
S'3'
sg370
(lp412
ssbag2
(g341
g4
NtRp413
(dp414
g344
S''
sg345
I8082
sg346
(lp415
sg348
S'no-response'
p416
sg350
(dp417
g30
S'filtered'
p418
sg32
g416
sg34
S'0'
ssg354
S'0'
sg355
S''
sg356
S''
sg357
S''
sg358
S'tcp'
p419
sg360
(dp420
g362
(lp421
ssg364
(dp422
g109
S'blackice-alerts'
p423
sg367
S'table'
p424
sg369
S'3'
sg370
(lp425
ssbasg20
S'1512730232'
p426
sg21
S'1512730666'
p427
sg22
(lp428
sg24
g54
sg25
g50
sg26
g55
sg27
g50
sg28
(dp429
g30
S'up'
p430
sg32
S'arp-response'
p431
sg34
S'0'
ssg35
g2
(g36
g4
NtRp432
(dp433
g39
(lp434
g334
asg41
(lp435
g2
(clibnmap.objects.os
NmapOSMatch
p436
g4
NtRp437
(dp438
S'_line'
p439
g108
sS'_accuracy'
p440
g112
sS'_osclasses'
p441
(lp442
g2
(clibnmap.objects.os
NmapOSClass
p443
g4
NtRp444
(dp445
S'_type'
p446
g119
sg346
(lp447
g2
(clibnmap.objects.cpe
CPE
p448
g4
NtRp449
(dp450
S'cpedict'
p451
(dp452
sS'_cpestring'
p453
g128
sS'_cpedict'
p454
(dp455
S'product'
p456
S'linux_kernel'
p457
sS'vendor'
p458
S'linux'
p459
sS'language'
p460
S''
sg126
S'cpe'
p461
sS'update'
p462
S''
sS'edition'
p463
S''
sS'version'
p464
S'2.6'
p465
sS'part'
p466
S'/o'
p467
ssbasg440
g125
sg24
g122
sS'_osfamily'
p468
g121
sS'_osgen'
p469
g124
sbag2
(g443
g4
NtRp470
(dp471
g446
g131
sg346
(lp472
g2
(g448
g4
NtRp473
(dp474
g451
(dp475
sg453
g137
sg454
(dp476
g456
S'linux_kernel'
p477
sg458
S'linux'
p478
sg460
S''
sg126
S'cpe'
p479
sg462
S''
sg463
S''
sg464
S'3'
sg466
S'/o'
p480
ssbasg440
g135
sg24
g133
sg468
g132
sg469
g134
sbasS'_name'
p481
g110
sbag2
(g436
g4
NtRp482
(dp483
g439
g140
sg440
g142
sg441
(lp484
g2
(g443
g4
NtRp485
(dp486
g446
g146
sg346
(lp487
g2
(g448
g4
NtRp488
(dp489
g451
(dp490
sg453
g152
sg454
(dp491
g456
S'linux_kernel'
p492
sg458
S'linux'
p493
sg460
S''
sg126
S'cpe'
p494
sg462
S''
sg463
S''
sg464
S'2.6'
p495
sg466
S'/o'
p496
ssbasg440
g150
sg24
g148
sg468
g147
sg469
g149
sbag2
(g443
g4
NtRp497
(dp498
g446
g155
sg346
(lp499
g2
(g448
g4
NtRp500
(dp501
g451
(dp502
sg453
g161
sg454
(dp503
g456
S'linux_kernel'
p504
sg458
S'linux'
p505
sg460
S''
sg126
S'cpe'
p506
sg462
S''
sg463
S''
sg464
S'3'
sg466
S'/o'
p507
ssbasg440
g159
sg24
g157
sg468
g156
sg469
g158
sbasg481
g141
sbag2
(g436
g4
NtRp508
(dp509
g439
g164
sg440
g166
sg441
(lp510
g2
(g443
g4
NtRp511
(dp512
g446
g170
sg346
(lp513
g2
(g448
g4
NtRp514
(dp515
g451
(dp516
sg453
g175
sg454
(dp517
g456
S'wrv54g'
p518
sg458
S'linksys'
p519
sg460
S''
sg126
S'cpe'
p520
sg462
S''
sg463
S''
sg464
S''
sg466
S'/h'
p521
ssbasg440
g173
sg24
g172
sg468
g171
sg469
S''
sbasg481
g165
sbag2
(g436
g4
NtRp522
(dp523
g439
g178
sg440
g180
sg441
(lp524
g2
(g443
g4
NtRp525
(dp526
g446
g184
sg346
(lp527
g2
(g448
g4
NtRp528
(dp529
g451
(dp530
sg453
g189
sg454
(dp531
g456
S'evw3226'
p532
sg458
S'ubee'
p533
sg460
S''
sg126
S'cpe'
p534
sg462
S''
sg463
S''
sg464
S''
sg466
S'/h'
p535
ssbasg440
g187
sg24
g186
sg468
g185
sg469
S''
sbag2
(g443
g4
NtRp536
(dp537
g446
g192
sg346
(lp538
g2
(g448
g4
NtRp539
(dp540
g451
(dp541
sg453
g197
sg454
(dp542
g456
S'tg1672'
p543
sg458
S'arris'
p544
sg460
S''
sg126
S'cpe'
p545
sg462
S''
sg463
S''
sg464
S''
sg466
S'/h'
p546
ssbasg440
g195
sg24
g194
sg468
g193
sg469
S''
sbag2
(g443
g4
NtRp547
(dp548
g446
g200
sg346
(lp549
g2
(g448
g4
NtRp550
(dp551
g451
(dp552
sg453
g206
sg454
(dp553
g456
S'linux_kernel'
p554
sg458
S'linux'
p555
sg460
S''
sg126
S'cpe'
p556
sg462
S''
sg463
S''
sg464
S'2.6.18'
p557
sg466
S'/o'
p558
ssbasg440
g204
sg24
g202
sg468
g201
sg469
g203
sbasg481
g179
sbag2
(g436
g4
NtRp559
(dp560
g439
g209
sg440
g211
sg441
(lp561
g2
(g443
g4
NtRp562
(dp563
g446
g215
sg346
(lp564
g2
(g448
g4
NtRp565
(dp566
g451
(dp567
sg453
g220
sg454
(dp568
g456
S'rv042'
p569
sg458
S'linksys'
p570
sg460
S''
sg126
S'cpe'
p571
sg462
S''
sg463
S''
sg464
S''
sg466
S'/h'
p572
ssbasg440
g218
sg24
g217
sg468
g216
sg469
S''
sbasg481
g210
sbag2
(g436
g4
NtRp573
(dp574
g439
g223
sg440
g225
sg441
(lp575
g2
(g443
g4
NtRp576
(dp577
g446
g229
sg346
(lp578
g2
(g448
g4
NtRp579
(dp580
g451
(dp581
sg453
g235
sg454
(dp582
g456
S'android'
p583
sg458
S'google'
p584
sg460
S''
sg126
S'cpe'
p585
sg462
S''
sg463
S''
sg464
S'2.1'
p586
sg466
S'/o'
p587
ssbasg440
g233
sg24
g231
sg468
g230
sg469
g232
sbag2
(g443
g4
NtRp588
(dp589
g446
g238
sg346
(lp590
g2
(g448
g4
NtRp591
(dp592
g451
(dp593
sg453
g244
sg454
(dp594
g456
S'linux_kernel'
p595
sg458
S'linux'
p596
sg460
S''
sg126
S'cpe'
p597
sg462
S''
sg463
S''
sg464
S'2.6.29'
p598
sg466
S'/o'
p599
ssbag2
(g448
g4
NtRp600
(dp601
g451
(dp602
sg453
g245
sg454
(dp603
g456
S'android'
p604
sg458
S'google'
p605
sg460
S''
sg126
S'cpe'
p606
sg462
S'rev1'
p607
sg463
S''
sg464
S'2.1'
p608
sg466
S'/o'
p609
ssbasg440
g242
sg24
g240
sg468
g239
sg469
g241
sbasg481
g224
sbag2
(g436
g4
NtRp610
(dp611
g439
g248
sg440
g250
sg441
(lp612
g2
(g443
g4
NtRp613
(dp614
g446
g254
sg346
(lp615
g2
(g448
g4
NtRp616
(dp617
g451
(dp618
sg453
g260
sg454
(dp619
g456
S'linux_kernel'
p620
sg458
S'linux'
p621
sg460
S''
sg126
S'cpe'
p622
sg462
S''
sg463
S''
sg464
S'2.6'
p623
sg466
S'/o'
p624
ssbasg440
g258
sg24
g256
sg468
g255
sg469
g257
sbasg481
g249
sbag2
(g436
g4
NtRp625
(dp626
g439
g263
sg440
g265
sg441
(lp627
g2
(g443
g4
NtRp628
(dp629
g446
g269
sg346
(lp630
g2
(g448
g4
NtRp631
(dp632
g451
(dp633
sg453
g275
sg454
(dp634
g456
S'linux_kernel'
p635
sg458
S'linux'
p636
sg460
S''
sg126
S'cpe'
p637
sg462
S''
sg463
S''
sg464
S'2.6'
p638
sg466
S'/o'
p639
ssbasg440
g273
sg24
g271
sg468
g270
sg469
g272
sbag2
(g443
g4
NtRp640
(dp641
g446
g278
sg346
(lp642
g2
(g448
g4
NtRp643
(dp644
g451
(dp645
sg453
g284
sg454
(dp646
g456
S'linux_kernel'
p647
sg458
S'linux'
p648
sg460
S''
sg126
S'cpe'
p649
sg462
S''
sg463
S''
sg464
S'3'
sg466
S'/o'
p650
ssbasg440
g282
sg24
g280
sg468
g279
sg469
g281
sbasg481
g264
sbag2
(g436
g4
NtRp651
(dp652
g439
g287
sg440
g289
sg441
(lp653
g2
(g443
g4
NtRp654
(dp655
g446
g293
sg346
(lp656
g2
(g448
g4
NtRp657
(dp658
g451
(dp659
sg453
g299
sg454
(dp660
g456
S'linux_kernel'
p661
sg458
S'linux'
p662
sg460
S''
sg126
S'cpe'
p663
sg462
S''
sg463
S''
sg464
S'2.6.22'
p664
sg466
S'/o'
p665
ssbasg440
g297
sg24
g295
sg468
g294
sg469
g296
sbasg481
g288
sbag2
(g436
g4
NtRp666
(dp667
g439
g302
sg440
g304
sg441
(lp668
g2
(g443
g4
NtRp669
(dp670
g446
g308
sg346
(lp671
g2
(g448
g4
NtRp672
(dp673
g451
(dp674
sg453
g314
sg454
(dp675
g456
S'linux_kernel'
p676
sg458
S'linux'
p677
sg460
S''
sg126
S'cpe'
p678
sg462
S''
sg463
S''
sg464
S'2.6'
p679
sg466
S'/o'
p680
ssbasg440
g312
sg24
g310
sg468
g309
sg469
g311
sbasg481
g303
sbasg43
(lp681
g2
(clibnmap.objects.os
OSFPPortUsed
p682
g4
NtRp683
(dp684
g350
g318
sS'_proto'
p685
g322
sg345
g320
sbag2
(g682
g4
NtRp686
(dp687
g350
g324
sg685
g325
sg345
S'1'
sbag2
(g682
g4
NtRp688
(dp689
g350
g327
sg685
g329
sg345
g328
sbasbsbag2
(g3
g4
NtRp690
(dp691
g7
I01
sg8
(lp692
(dp693
g11
S'ipv4'
p694
sg13
S'192.168.0.4'
p695
sa(dp696
g11
S'mac'
p697
sg13
S'94:65:2D:2C:8C:B7'
p698
sasg15
Nsg16
(dp699
g87
(dp700
g89
(dp701
g91
S'1000'
p702
sg30
S'closed'
p703
ssg94
(lp704
(dp705
g91
S'1000'
p706
sg32
S'resets'
p707
sasg99
g701
ssg57
(dp708
g59
S'1'
ssg100
(dp709
g102
(lp710
sg315
(lp711
(dp712
g30
S'closed'
p713
sg319
S'1'
sg321
S'tcp'
p714
sa(dp715
g30
S'closed'
p716
sg319
S'42318'
p717
sg321
S'udp'
p718
sasg330
(lp719
(dp720
g333
S'SCAN(V=7.01%E=4%D=12/8%OT=%CT=1%CU=42318%PV=Y%DS=1%DC=D%G=N%M=94652D%TM=5A2A702A%P=x86_64-pc-linux-gnu)\nSEQ(CI=I)\nT5(R=Y%DF=Y%T=40%W=0%S=Z%A=S+%F=AR%O=%RD=0%Q=)\nT6(R=Y%DF=Y%T=40%W=0%S=A%A=Z%F=R%O=%RD=0%Q=)\nT7(R=Y%DF=Y%T=40%W=0%S=Z%A=S+%F=AR%O=%RD=0%Q=)\nU1(R=Y%DF=N%T=40%IPL=164%UN=0%RIPL=G%RID=G%RIPCK=G%RUCK=G%RUD=G)\nIE(R=Y%DFI=N%T=40%CD=S)\n'
p721
sasg113
(lp722
ssg66
(dp723
g68
S'100000'
p724
sg70
S'14541'
p725
sg72
S'17242'
p726
sssg18
(lp727
sg20
S'1512730232'
p728
sg21
S'1512730656'
p729
sg22
(lp730
sg24
Nsg25
g695
sg26
g698
sg27
g695
sg28
(dp731
g30
S'up'
p732
sg32
S'arp-response'
p733
sg34
S'0'
ssg35
g2
(g36
g4
NtRp734
(dp735
g39
(lp736
g721
asg41
(lp737
sg43
(lp738
g2
(g682
g4
NtRp739
(dp740
g350
g713
sg685
g714
sg345
S'1'
sbag2
(g682
g4
NtRp741
(dp742
g350
g716
sg685
g718
sg345
g717
sbasbsbag2
(g3
g4
NtRp743
(dp744
g7
I01
sg8
(lp745
(dp746
g11
S'ipv4'
p747
sg13
S'192.168.0.6'
p748
sa(dp749
g11
S'mac'
p750
sg13
S'B8:81:98:57:84:47'
p751
sasg15
Nsg16
(dp752
g57
(dp753
g59
S'1'
ssg60
(dp754
g62
S'4987'
p755
sg64
S'Fri Dec  8 04:34:39 2017'
p756
ssg66
(dp757
g68
S'100000'
p758
sg70
S'1322'
p759
sg72
S'131'
p760
ssg74
(dp761
g76
S'261'
p762
sg78
S'73A6B7FB,2F2195B,12CE76FC,C1E5B2EF,90D897B5,788F3EC1'
p763
sg80
S'Good luck!'
p764
ssg82
(dp765
g78
S'1001CC,1001D1,1001EB,100218,10021D,100237'
p766
sg85
S'other'
p767
ssg87
(dp768
g89
(dp769
g91
S'999'
p770
sg30
S'closed'
p771
ssg94
(lp772
(dp773
g91
S'999'
p774
sg32
S'resets'
p775
sasg99
g769
ssg100
(dp776
g102
(lp777
(dp778
g105
(dp779
g107
S'58530'
p780
sg109
S'Linux 3.2 - 4.0'
p781
sg111
S'100'
p782
ssg113
(lp783
(dp784
g116
(dp785
g118
S'general purpose'
p786
sg120
S'Linux'
p787
sg53
S'Linux'
p788
sg123
S'3.X'
p789
sg111
S'100'
p790
ssg126
(lp791
S'cpe:/o:linux:linux_kernel:3'
p792
asa(dp793
g116
(dp794
g118
S'general purpose'
p795
sg120
S'Linux'
p796
sg53
S'Linux'
p797
sg123
S'4.X'
p798
sg111
S'100'
p799
ssg126
(lp800
S'cpe:/o:linux:linux_kernel:4'
p801
asasasg315
(lp802
(dp803
g30
S'open'
p804
sg319
S'22'
p805
sg321
S'tcp'
p806
sa(dp807
g30
S'closed'
p808
sg319
S'1'
sg321
S'tcp'
p809
sa(dp810
g30
S'closed'
p811
sg319
S'43818'
p812
sg321
S'udp'
p813
sasg330
(lp814
(dp815
g333
S'OS:SCAN(V=7.01%E=4%D=12/8%OT=22%CT=1%CU=43818%PV=Y%DS=1%DC=D%G=Y%M=B88198%T\nOS:M=5A2A702A%P=x86_64-pc-linux-gnu)SEQ(SP=105%GCD=1%ISR=109%TI=Z%TS=8)OPS(\nOS:O1=M5B4ST11NW7%O2=M5B4ST11NW7%O3=M5B4NNT11NW7%O4=M5B4ST11NW7%O5=M5B4ST11\nOS:NW7%O6=M5B4ST11)WIN(W1=7120%W2=7120%W3=7120%W4=7120%W5=7120%W6=7120)ECN(\nOS:R=Y%DF=Y%T=40%W=7210%O=M5B4NNSNW7%CC=Y%Q=)T1(R=Y%DF=Y%T=40%S=O%A=S+%F=AS\nOS:%RD=0%Q=)T2(R=N)T3(R=N)T4(R=Y%DF=Y%T=40%W=0%S=A%A=Z%F=R%O=%RD=0%Q=)T5(R=\nOS:Y%DF=Y%T=40%W=0%S=Z%A=S+%F=AR%O=%RD=0%Q=)T6(R=Y%DF=Y%T=40%W=0%S=A%A=Z%F=\nOS:R%O=%RD=0%Q=)T7(R=Y%DF=Y%T=40%W=0%S=Z%A=S+%F=AR%O=%RD=0%Q=)U1(R=Y%DF=N%T\nOS:=40%IPL=164%UN=0%RIPL=G%RID=G%RIPCK=G%RUCK=G%RUD=G)IE(R=Y%DFI=N%T=40%CD=\nOS:S)\n'
p816
sasg113
(lp817
ssg336
(dp818
g78
S'0,0,0,0,0,0'
p819
sg85
S'All zeros'
p820
sssg18
(lp821
g2
(g341
g4
NtRp822
(dp823
g344
S''
sg345
I22
sg346
(lp824
sg348
S'syn-ack'
p825
sg350
(dp826
g30
S'open'
p827
sg32
g825
sg34
S'64'
p828
ssg354
g828
sg355
S''
sg356
S''
sg357
S''
sg358
S'tcp'
p829
sg360
(dp830
g362
(lp831
ssg364
(dp832
g109
S'ssh'
p833
sg367
S'table'
p834
sg369
S'3'
sg370
(lp835
ssbasg20
S'1512730232'
p836
sg21
S'1512730653'
p837
sg22
(lp838
sg24
Nsg25
g748
sg26
g751
sg27
g748
sg28
(dp839
g30
S'up'
p840
sg32
S'arp-response'
p841
sg34
S'0'
ssg35
g2
(g36
g4
NtRp842
(dp843
g39
(lp844
g816
asg41
(lp845
g2
(g436
g4
NtRp846
(dp847
g439
g780
sg440
g782
sg441
(lp848
g2
(g443
g4
NtRp849
(dp850
g446
g786
sg346
(lp851
g2
(g448
g4
NtRp852
(dp853
g451
(dp854
sg453
g792
sg454
(dp855
g456
S'linux_kernel'
p856
sg458
S'linux'
p857
sg460
S''
sg126
S'cpe'
p858
sg462
S''
sg463
S''
sg464
S'3'
sg466
S'/o'
p859
ssbasg440
g790
sg24
g788
sg468
g787
sg469
g789
sbag2
(g443
g4
NtRp860
(dp861
g446
g795
sg346
(lp862
g2
(g448
g4
NtRp863
(dp864
g451
(dp865
sg453
g801
sg454
(dp866
g456
S'linux_kernel'
p867
sg458
S'linux'
p868
sg460
S''
sg126
S'cpe'
p869
sg462
S''
sg463
S''
sg464
S'4'
sg466
S'/o'
p870
ssbasg440
g799
sg24
g797
sg468
g796
sg469
g798
sbasg481
g781
sbasg43
(lp871
g2
(g682
g4
NtRp872
(dp873
g350
g804
sg685
g806
sg345
g805
sbag2
(g682
g4
NtRp874
(dp875
g350
g808
sg685
g809
sg345
S'1'
sbag2
(g682
g4
NtRp876
(dp877
g350
g811
sg685
g813
sg345
g812
sbasbsbag2
(g3
g4
NtRp878
(dp879
g7
I01
sg8
(lp880
(dp881
g11
S'ipv4'
p882
sg13
S'192.168.0.14'
p883
sa(dp884
g11
S'mac'
p885
sg53
S'OnePlus Tech (Shenzhen)'
p886
sg13
S'C0:EE:FB:52:EB:E2'
p887
sasg15
Nsg16
(dp888
g87
(dp889
g89
(dp890
g91
S'1000'
p891
sg30
S'filtered'
p892
ssg94
(lp893
(dp894
g91
S'1000'
p895
sg32
S'no-responses'
p896
sasg99
g890
ssg57
(dp897
g59
S'1'
ssg100
(dp898
g102
(lp899
sg315
(lp900
(dp901
g30
S'closed'
p902
sg319
S'31225'
p903
sg321
S'udp'
p904
sasg330
(lp905
(dp906
g333
S'SCAN(V=7.01%E=4%D=12/8%OT=%CT=%CU=31225%PV=Y%DS=1%DC=D%G=N%M=C0EEFB%TM=5A2A702A%P=x86_64-pc-linux-gnu)\nSEQ(II=I)\nT5(R=Y%DF=Y%T=40%W=0%S=Z%A=S+%F=AR%O=%RD=0%Q=)\nT6(R=Y%DF=Y%T=40%W=0%S=A%A=Z%F=R%O=%RD=0%Q=)\nT7(R=Y%DF=Y%T=40%W=0%S=Z%A=S+%F=AR%O=%RD=0%Q=)\nU1(R=Y%DF=N%T=40%IPL=164%UN=0%RIPL=G%RID=G%RIPCK=G%RUCK=G%RUD=G)\nIE(R=Y%DFI=N%T=40%CD=S)\n'
p907
sasg113
(lp908
ssg66
(dp909
g68
S'352931'
p910
sg70
S'65323'
p911
sg72
S'71902'
p912
sssg18
(lp913
sg20
S'1512730232'
p914
sg21
S'1512730656'
p915
sg22
(lp916
sg24
g886
sg25
g883
sg26
g887
sg27
g883
sg28
(dp917
g30
S'up'
p918
sg32
S'arp-response'
p919
sg34
S'0'
ssg35
g2
(g36
g4
NtRp920
(dp921
g39
(lp922
g907
asg41
(lp923
sg43
(lp924
g2
(g682
g4
NtRp925
(dp926
g350
g902
sg685
g904
sg345
g903
sbasbsbag2
(g3
g4
NtRp927
(dp928
g7
I01
sg8
(lp929
(dp930
g11
S'ipv4'
p931
sg13
S'192.168.0.18'
p932
sa(dp933
g11
S'mac'
p934
sg13
S'D4:63:C6:DD:B4:D2'
p935
sasg15
Nsg16
(dp936
g87
(dp937
g89
(dp938
g91
S'164'
p939
sg30
S'filtered'
p940
ssg94
(lp941
(dp942
g91
S'164'
p943
sg32
S'no-responses'
p944
sasg99
g938
ssg57
(dp945
g59
S'1'
ssg100
(dp946
g102
(lp947
sg315
(lp948
(dp949
g30
S'closed'
p950
sg319
S'1'
sg321
S'tcp'
p951
sa(dp952
g30
S'closed'
p953
sg319
S'41711'
p954
sg321
S'udp'
p955
sasg330
(lp956
(dp957
g333
S'SCAN(V=7.01%E=4%D=12/8%OT=%CT=1%CU=41711%PV=Y%DS=1%DC=D%G=N%M=D463C6%TM=5A2A702A%P=x86_64-pc-linux-gnu)\nSEQ(CI=I)\nT5(R=Y%DF=Y%T=40%W=0%S=Z%A=S+%F=AR%O=%RD=0%Q=)\nT6(R=Y%DF=Y%T=40%W=0%S=A%A=Z%F=R%O=%RD=0%Q=)\nT7(R=Y%DF=Y%T=40%W=0%S=Z%A=S+%F=AR%O=%RD=0%Q=)\nU1(R=Y%DF=N%T=40%IPL=164%UN=0%RIPL=G%RID=G%RIPCK=G%RUCK=G%RUD=G)\nIE(R=Y%DFI=N%T=40%CD=S)\n'
p958
sasg113
(lp959
ssg66
(dp960
g68
S'100000'
p961
sg70
S'7999'
p962
sg72
S'7476'
p963
sssg18
(lp964
sg20
S'1512730232'
p965
sg21
S'1512730656'
p966
sg22
(lp967
sg24
Nsg25
g932
sg26
g935
sg27
g932
sg28
(dp968
g30
S'up'
p969
sg32
S'arp-response'
p970
sg34
S'0'
ssg35
g2
(g36
g4
NtRp971
(dp972
g39
(lp973
g958
asg41
(lp974
sg43
(lp975
g2
(g682
g4
NtRp976
(dp977
g350
g950
sg685
g951
sg345
S'1'
sbag2
(g682
g4
NtRp978
(dp979
g350
g953
sg685
g955
sg345
g954
sbasbsbag2
(g3
g4
NtRp980
(dp981
g7
I01
sg8
(lp982
(dp983
g11
S'ipv4'
p984
sg13
S'192.168.0.17'
p985
sasg15
Nsg16
(dp986
g57
(dp987
g59
S'0'
ssg60
(dp988
g62
S'16243'
p989
sg64
S'Fri Dec  8 01:27:07 2017'
p990
ssg66
(dp991
g68
S'100000'
p992
sg70
S'8'
sg72
S'8'
ssg74
(dp993
g76
S'263'
p994
sg78
S'CC23501F,A84B794C,A2AAF4E3,2A724BA0,C13A59BA,80B45AD6'
p995
sg80
S'Good luck!'
p996
ssg82
(dp997
g78
S'3DF510,3DF529,3DF542,3DF55B,3DF574,3DF58D'
p998
sg85
S'other'
p999
ssg87
(dp1000
g89
(dp1001
g91
S'998'
p1002
sg30
S'closed'
p1003
ssg94
(lp1004
(dp1005
g91
S'998'
p1006
sg32
S'resets'
p1007
sasg99
g1001
ssg100
(dp1008
g102
(lp1009
(dp1010
g105
(dp1011
g107
S'57420'
p1012
sg109
S'Linux 3.12 - 3.19'
p1013
sg111
S'100'
p1014
ssg113
(lp1015
(dp1016
g116
(dp1017
g118
S'general purpose'
p1018
sg120
S'Linux'
p1019
sg53
S'Linux'
p1020
sg123
S'3.X'
p1021
sg111
S'100'
p1022
ssg126
(lp1023
S'cpe:/o:linux:linux_kernel:3'
p1024
asasa(dp1025
g105
(dp1026
g107
S'59486'
p1027
sg109
S'Linux 3.8 - 3.19'
p1028
sg111
S'100'
p1029
ssg113
(lp1030
(dp1031
g116
(dp1032
g118
S'general purpose'
p1033
sg120
S'Linux'
p1034
sg53
S'Linux'
p1035
sg123
S'3.X'
p1036
sg111
S'100'
p1037
ssg126
(lp1038
S'cpe:/o:linux:linux_kernel:3'
p1039
asasasg315
(lp1040
(dp1041
g30
S'open'
p1042
sg319
S'902'
p1043
sg321
S'tcp'
p1044
sa(dp1045
g30
S'closed'
p1046
sg319
S'1'
sg321
S'tcp'
p1047
sa(dp1048
g30
S'closed'
p1049
sg319
S'37126'
p1050
sg321
S'udp'
p1051
sasg330
(lp1052
(dp1053
g333
S'OS:SCAN(V=7.01%E=4%D=12/8%OT=902%CT=1%CU=37126%PV=Y%DS=0%DC=L%G=Y%TM=5A2A70\nOS:2E%P=x86_64-pc-linux-gnu)SEQ(SP=107%GCD=1%ISR=10B%TI=Z%CI=I%TS=8)OPS(O1=\nOS:MFFD7ST11NW7%O2=MFFD7ST11NW7%O3=MFFD7NNT11NW7%O4=MFFD7ST11NW7%O5=MFFD7ST\nOS:11NW7%O6=MFFD7ST11)WIN(W1=AAAA%W2=AAAA%W3=AAAA%W4=AAAA%W5=AAAA%W6=AAAA)E\nOS:CN(R=Y%DF=Y%T=40%W=AAAA%O=MFFD7NNSNW7%CC=Y%Q=)T1(R=Y%DF=Y%T=40%S=O%A=S+%\nOS:F=AS%RD=0%Q=)T2(R=N)T3(R=N)T4(R=Y%DF=Y%T=40%W=0%S=A%A=Z%F=R%O=%RD=0%Q=)T\nOS:5(R=Y%DF=Y%T=40%W=0%S=Z%A=S+%F=AR%O=%RD=0%Q=)T6(R=Y%DF=Y%T=40%W=0%S=A%A=\nOS:Z%F=R%O=%RD=0%Q=)T7(R=Y%DF=Y%T=40%W=0%S=Z%A=S+%F=AR%O=%RD=0%Q=)U1(R=Y%DF\nOS:=N%T=40%IPL=164%UN=0%RIPL=G%RID=G%RIPCK=G%RUCK=G%RUD=G)IE(R=Y%DFI=N%T=40\nOS:%CD=S)\n'
p1054
sasg113
(lp1055
ssg336
(dp1056
g78
S'0,0,0,0,0,0'
p1057
sg85
S'All zeros'
p1058
sssg18
(lp1059
g2
(g341
g4
NtRp1060
(dp1061
g344
S''
sg345
I902
sg346
(lp1062
sg348
S'syn-ack'
p1063
sg350
(dp1064
g30
S'open'
p1065
sg32
g1063
sg34
S'64'
p1066
ssg354
g1066
sg355
S''
sg356
S''
sg357
S''
sg358
S'tcp'
p1067
sg360
(dp1068
g362
(lp1069
ssg364
(dp1070
g109
S'iss-realsecure'
p1071
sg367
S'table'
p1072
sg369
S'3'
sg370
(lp1073
ssbag2
(g341
g4
NtRp1074
(dp1075
g344
S''
sg345
I5009
sg346
(lp1076
sg348
S'syn-ack'
p1077
sg350
(dp1078
g30
S'open'
p1079
sg32
g1077
sg34
S'64'
p1080
ssg354
g1080
sg355
S''
sg356
S''
sg357
S''
sg358
S'tcp'
p1081
sg360
(dp1082
g362
(lp1083
ssg364
(dp1084
g109
S'airport-admin'
p1085
sg367
S'table'
p1086
sg369
S'3'
sg370
(lp1087
ssbasg20
S'1512730666'
p1088
sg21
S'1512730670'
p1089
sg22
(lp1090
sg24
Nsg25
g985
sg26
Nsg27
g985
sg28
(dp1091
g30
S'up'
p1092
sg32
S'user-set'
p1093
sg34
S'0'
ssg35
g2
(g36
g4
NtRp1094
(dp1095
g39
(lp1096
g1054
asg41
(lp1097
g2
(g436
g4
NtRp1098
(dp1099
g439
g1012
sg440
g1014
sg441
(lp1100
g2
(g443
g4
NtRp1101
(dp1102
g446
g1018
sg346
(lp1103
g2
(g448
g4
NtRp1104
(dp1105
g451
(dp1106
sg453
g1024
sg454
(dp1107
g456
S'linux_kernel'
p1108
sg458
S'linux'
p1109
sg460
S''
sg126
S'cpe'
p1110
sg462
S''
sg463
S''
sg464
S'3'
sg466
S'/o'
p1111
ssbasg440
g1022
sg24
g1020
sg468
g1019
sg469
g1021
sbasg481
g1013
sbag2
(g436
g4
NtRp1112
(dp1113
g439
g1027
sg440
g1029
sg441
(lp1114
g2
(g443
g4
NtRp1115
(dp1116
g446
g1033
sg346
(lp1117
g2
(g448
g4
NtRp1118
(dp1119
g451
(dp1120
sg453
g1039
sg454
(dp1121
g456
S'linux_kernel'
p1122
sg458
S'linux'
p1123
sg460
S''
sg126
S'cpe'
p1124
sg462
S''
sg463
S''
sg464
S'3'
sg466
S'/o'
p1125
ssbasg440
g1037
sg24
g1035
sg468
g1034
sg469
g1036
sbasg481
g1028
sbasg43
(lp1126
g2
(g682
g4
NtRp1127
(dp1128
g350
g1042
sg685
g1044
sg345
g1043
sbag2
(g682
g4
NtRp1129
(dp1130
g350
g1046
sg685
g1047
sg345
S'1'
sbag2
(g682
g4
NtRp1131
(dp1132
g350
g1049
sg685
g1051
sg345
g1050
sbasbsbag2
(g3
g4
NtRp1133
(dp1134
g7
I01
sg8
(lp1135
(dp1136
S'addrtype'
p1137
S'ipv4'
p1138
sS'addr'
p1139
S'169.39.10.101'
p1140
sasg15
Nsg16
(dp1141
S'extraports'
p1142
(dp1143
S'count'
p1144
(dp1145
S'count'
p1146
S'1000'
p1147
sS'state'
p1148
S'filtered'
p1149
ssS'reasons'
p1150
(lp1151
(dp1152
g1146
S'996'
p1153
sS'reason'
p1154
S'no-responses'
p1155
sa(dp1156
g1146
S'4'
sg1154
S'net-unreaches'
p1157
sasS'state'
p1158
g1145
ssS'os'
p1159
(dp1160
S'osmatches'
p1161
(lp1162
sS'ports_used'
p1163
(lp1164
sS'osclasses'
p1165
(lp1166
sS'osfingerprints'
p1167
(lp1168
(dp1169
S'fingerprint'
p1170
S'SCAN(V=7.01%E=4%D=12/8%OT=%CT=%CU=%PV=N%G=N%TM=5A2A74A4%P=x86_64-pc-linux-gnu)\nU1(R=N)\nIE(R=N)\n'
p1171
sassS'times'
p1172
(dp1173
S'to'
p1174
S'195732'
p1175
sS'rttvar'
p1176
S'38285'
p1177
sS'srtt'
p1178
S'42592'
p1179
sssg18
(lp1180
sg20
S'1512731796'
p1181
sg21
S'1512731812'
p1182
sg22
(lp1183
sg24
Nsg25
g1140
sg26
Nsg27
g1140
sg28
(dp1184
g1148
S'up'
p1185
sg1154
S'user-set'
p1186
sS'reason_ttl'
p1187
S'0'
ssg35
g2
(g36
g4
NtRp1188
(dp1189
g39
(lp1190
g1171
asg41
(lp1191
sg43
(lp1192
sbsbag2
(g3
g4
NtRp1193
(dp1194
g7
I01
sg8
(lp1195
(dp1196
S'addrtype'
p1197
S'ipv4'
p1198
sS'addr'
p1199
S'169.30.11.23'
p1200
sasg15
Nsg16
(dp1201
S'extraports'
p1202
(dp1203
S'count'
p1204
(dp1205
S'count'
p1206
S'1000'
p1207
sS'state'
p1208
S'filtered'
p1209
ssS'reasons'
p1210
(lp1211
(dp1212
g1206
S'996'
p1213
sS'reason'
p1214
S'no-responses'
p1215
sa(dp1216
g1206
S'4'
sg1214
S'net-unreaches'
p1217
sasS'state'
p1218
g1205
ssg35
(dp1219
S'osmatches'
p1220
(lp1221
sS'ports_used'
p1222
(lp1223
sS'osfingerprints'
p1224
(lp1225
(dp1226
S'fingerprint'
p1227
S'SCAN(V=7.01%E=4%D=12/9%OT=%CT=%CU=%PV=N%G=N%TM=5A2BA006%P=x86_64-pc-linux-gnu)\nU1(R=N)\nIE(R=N)\n'
p1228
sasS'osclasses'
p1229
(lp1230
ssS'times'
p1231
(dp1232
S'to'
p1233
S'100000'
p1234
sS'srtt'
p1235
S'20977'
p1236
sS'rttvar'
p1237
S'18002'
p1238
sssg18
(lp1239
sg20
S'1512808442'
p1240
sg21
S'1512808454'
p1241
sg22
(lp1242
sg24
Nsg25
g1200
sg26
Nsg27
g1200
sg28
(dp1243
g1208
S'up'
p1244
sg1214
S'user-set'
p1245
sS'reason_ttl'
p1246
S'0'
ssg35
g2
(g36
g4
NtRp1247
(dp1248
g39
(lp1249
g1228
asg41
(lp1250
sg43
(lp1251
sbsba.