(lp1
ccopy_reg
_reconstructor
p2
(clibnmap.objects.host
NmapHost
p3
c__builtin__
object
p4
NtRp5
(dp6
S'_osfingerprinted'
p7
I01
sS'_address'
p8
(lp9
(dp10
S'addrtype'
p11
S'ipv4'
p12
sS'addr'
p13
S'192.168.1.114'
p14
sa(dp15
g11
S'mac'
p16
sS'vendor'
p17
S'ASRock Incorporation'
p18
sg13
S'BC:5F:F4:C8:A7:30'
p19
sasS'_ipv6_addr'
p20
NsS'_extras'
p21
(dp22
S'distance'
p23
(dp24
S'value'
p25
S'1'
ssS'uptime'
p26
(dp27
S'seconds'
p28
S'1770551'
p29
sS'lastboot'
p30
S'Wed Nov 22 09:50:13 2017'
p31
ssS'times'
p32
(dp33
S'to'
p34
S'100000'
p35
sS'rttvar'
p36
S'415'
p37
sS'srtt'
p38
S'1827'
p39
ssS'tcpsequence'
p40
(dp41
S'index'
p42
S'255'
p43
sS'values'
p44
S'B4A7677A,AA35C2D,C351A5AA,89465C1C,6997033C,473983BD'
p45
sS'difficulty'
p46
S'Good luck!'
p47
ssS'tcptssequence'
p48
(dp49
g44
S'698870D2,69887137,6988719B,698871FE,69887262,698872C6'
p50
sS'class'
p51
S'1000HZ'
p52
ssS'extraports'
p53
(dp54
S'count'
p55
(dp56
S'count'
p57
S'993'
p58
sS'state'
p59
S'closed'
p60
ssS'reasons'
p61
(lp62
(dp63
g57
S'993'
p64
sS'reason'
p65
S'resets'
p66
sasS'state'
p67
g56
ssS'os'
p68
(dp69
S'osmatches'
p70
(lp71
(dp72
S'osmatch'
p73
(dp74
S'line'
p75
S'70329'
p76
sS'name'
p77
S'Microsoft Windows Vista, Windows 7 SP1, or Windows 8.1 Update 1'
p78
sS'accuracy'
p79
S'97'
p80
ssS'osclasses'
p81
(lp82
(dp83
S'osclass'
p84
(dp85
g17
S'Microsoft'
p86
sS'osfamily'
p87
S'Windows'
p88
sS'type'
p89
S'general purpose'
p90
sS'osgen'
p91
S'Vista'
p92
sg79
S'97'
p93
ssS'cpe'
p94
(lp95
S'cpe:/o:microsoft:windows_vista'
p96
asa(dp97
g84
(dp98
g17
S'Microsoft'
p99
sg87
S'Windows'
p100
sg89
S'general purpose'
p101
sg91
S'7'
sg79
S'97'
p102
ssg94
(lp103
S'cpe:/o:microsoft:windows_7::sp1'
p104
asa(dp105
g84
(dp106
g17
S'Microsoft'
p107
sg87
S'Windows'
p108
sg89
S'general purpose'
p109
sg91
S'8.1'
p110
sg79
S'97'
p111
ssg94
(lp112
S'cpe:/o:microsoft:windows_8.1'
p113
asasa(dp114
g73
(dp115
g75
S'61108'
p116
sg77
S'Microsoft Windows 10 build 10074 - 10240'
p117
sg79
S'95'
p118
ssg81
(lp119
(dp120
g84
(dp121
g17
S'Microsoft'
p122
sg87
S'Windows'
p123
sg89
S'general purpose'
p124
sg91
S'10'
p125
sg79
S'95'
p126
ssg94
(lp127
S'cpe:/o:microsoft:windows_10'
p128
asasa(dp129
g73
(dp130
g75
S'70259'
p131
sg77
S'Microsoft Windows Vista SP2 or Windows 7 Ultimate SP0 - SP1'
p132
sg79
S'94'
p133
ssg81
(lp134
(dp135
g84
(dp136
g17
S'Microsoft'
p137
sg87
S'Windows'
p138
sg89
S'general purpose'
p139
sg91
S'Vista'
p140
sg79
S'94'
p141
ssg94
(lp142
S'cpe:/o:microsoft:windows_vista::sp2'
p143
asa(dp144
g84
(dp145
g17
S'Microsoft'
p146
sg87
S'Windows'
p147
sg89
S'general purpose'
p148
sg91
S'7'
sg79
S'94'
p149
ssg94
(lp150
S'cpe:/o:microsoft:windows_7::-:ultimate'
p151
aS'cpe:/o:microsoft:windows_7::sp1:ultimate'
p152
asasa(dp153
g73
(dp154
g75
S'69791'
p155
sg77
S'Microsoft Windows Vista'
p156
sg79
S'93'
p157
ssg81
(lp158
(dp159
g84
(dp160
g17
S'Microsoft'
p161
sg87
S'Windows'
p162
sg89
S'general purpose'
p163
sg91
S'Vista'
p164
sg79
S'93'
p165
ssg94
(lp166
S'cpe:/o:microsoft:windows_vista'
p167
asasa(dp168
g73
(dp169
g75
S'68007'
p170
sg77
S'Windows 7 Professional SP1'
p171
sg79
S'93'
p172
ssg81
(lp173
(dp174
g84
(dp175
g17
S'Microsoft'
p176
sg87
S'Windows'
p177
sg89
S'general purpose'
p178
sg91
S'7'
sg79
S'93'
p179
ssg94
(lp180
S'cpe:/o:microsoft:windows_7::sp1'
p181
asasa(dp182
g73
(dp183
g75
S'67674'
p184
sg77
S'Microsoft Windows 7 SP1'
p185
sg79
S'93'
p186
ssg81
(lp187
(dp188
g84
(dp189
g17
S'Microsoft'
p190
sg87
S'Windows'
p191
sg89
S'general purpose'
p192
sg91
S'7'
sg79
S'93'
p193
ssg94
(lp194
S'cpe:/o:microsoft:windows_7::sp1'
p195
asasa(dp196
g73
(dp197
g75
S'67292'
p198
sg77
S'Microsoft Windows 7 SP0 - SP1'
p199
sg79
S'93'
p200
ssg81
(lp201
(dp202
g84
(dp203
g17
S'Microsoft'
p204
sg87
S'Windows'
p205
sg89
S'general purpose'
p206
sg91
S'7'
sg79
S'93'
p207
ssg94
(lp208
S'cpe:/o:microsoft:windows_7::-'
p209
aS'cpe:/o:microsoft:windows_7::sp1'
p210
asasa(dp211
g73
(dp212
g75
S'66125'
p213
sg77
S'Microsoft Windows Server 2008 SP2 or Windows 10 Tech Preview or Xbox One'
p214
sg79
S'93'
p215
ssg81
(lp216
(dp217
g84
(dp218
g17
S'Microsoft'
p219
sg87
S'Windows'
p220
sg89
S'general purpose'
p221
sg91
S'2008'
p222
sg79
S'93'
p223
ssg94
(lp224
S'cpe:/o:microsoft:windows_server_2008::sp2'
p225
asa(dp226
g84
(dp227
g17
S'Microsoft'
p228
sg87
S'Windows'
p229
sg89
S'general purpose'
p230
sg91
S'10'
p231
sg79
S'93'
p232
ssg94
(lp233
S'cpe:/o:microsoft:windows_10'
p234
asa(dp235
g84
(dp236
g17
S'Microsoft'
p237
sg87
S'embedded'
p238
sg89
S'media device'
p239
sg79
S'93'
p240
ssg94
(lp241
S'cpe:/h:microsoft:xbox_one'
p242
asasa(dp243
g73
(dp244
g75
S'67097'
p245
sg77
S'Microsoft Windows 7 or Windows Server 2008'
p246
sg79
S'93'
p247
ssg81
(lp248
(dp249
g84
(dp250
g17
S'Microsoft'
p251
sg87
S'Windows'
p252
sg89
S'general purpose'
p253
sg91
S'7'
sg79
S'93'
p254
ssg94
(lp255
S'cpe:/o:microsoft:windows_7'
p256
asa(dp257
g84
(dp258
g17
S'Microsoft'
p259
sg87
S'Windows'
p260
sg89
S'general purpose'
p261
sg91
S'2008'
p262
sg79
S'93'
p263
ssg94
(lp264
S'cpe:/o:microsoft:windows_server_2008'
p265
asasa(dp266
g73
(dp267
g75
S'67361'
p268
sg77
S'Microsoft Windows 7 SP0 - SP1, Windows Server 2008 SP1, Windows 8, or Windows 8.1 Update 1'
p269
sg79
S'93'
p270
ssg81
(lp271
(dp272
g84
(dp273
g17
S'Microsoft'
p274
sg87
S'Windows'
p275
sg89
S'general purpose'
p276
sg91
S'7'
sg79
S'93'
p277
ssg94
(lp278
S'cpe:/o:microsoft:windows_7::-'
p279
aS'cpe:/o:microsoft:windows_7::sp1'
p280
asa(dp281
g84
(dp282
g17
S'Microsoft'
p283
sg87
S'Windows'
p284
sg89
S'general purpose'
p285
sg91
S'2008'
p286
sg79
S'93'
p287
ssg94
(lp288
S'cpe:/o:microsoft:windows_server_2008::sp1'
p289
asa(dp290
g84
(dp291
g17
S'Microsoft'
p292
sg87
S'Windows'
p293
sg89
S'general purpose'
p294
sg91
S'8'
sg79
S'93'
p295
ssg94
(lp296
S'cpe:/o:microsoft:windows_8'
p297
asa(dp298
g84
(dp299
g17
S'Microsoft'
p300
sg87
S'Windows'
p301
sg89
S'general purpose'
p302
sg91
S'8.1'
p303
sg79
S'93'
p304
ssg94
(lp305
S'cpe:/o:microsoft:windows_8.1'
p306
asasasS'ports_used'
p307
(lp308
(dp309
g59
S'open'
p310
sS'portid'
p311
S'22'
p312
sS'proto'
p313
S'tcp'
p314
sa(dp315
g59
S'closed'
p316
sg311
S'1'
sg313
S'tcp'
p317
sa(dp318
g59
S'closed'
p319
sg311
S'42289'
p320
sg313
S'udp'
p321
sasg81
(lp322
sS'osfingerprints'
p323
(lp324
(dp325
S'fingerprint'
p326
S'OS:SCAN(V=7.01%E=4%D=12/12%OT=22%CT=1%CU=42289%PV=Y%DS=1%DC=D%G=Y%M=BC5FF4%\nOS:TM=5A3092DC%P=x86_64-pc-linux-gnu)SEQ(SP=FF%GCD=1%ISR=109%TI=I%CI=I%TS=A\nOS:)SEQ(SP=FF%GCD=1%ISR=109%TI=I%CI=RD%II=I%SS=S%TS=A)OPS(O1=M5B4NW8ST11%O2\nOS:=M5B4NW8ST11%O3=M5B4NW8NNT11%O4=M5B4NW8ST11%O5=M5B4NW8ST11%O6=M5B4ST11)W\nOS:IN(W1=2000%W2=2000%W3=2000%W4=2000%W5=2000%W6=2000)ECN(R=Y%DF=Y%T=40%W=2\nOS:000%O=M5B4NW8NNS%CC=N%Q=)T1(R=Y%DF=Y%T=40%S=O%A=S+%F=AS%RD=0%Q=)T2(R=Y%D\nOS:F=Y%T=40%W=0%S=Z%A=S%F=AR%O=%RD=0%Q=)T3(R=Y%DF=Y%T=40%W=0%S=Z%A=O%F=AR%O\nOS:=%RD=0%Q=)T4(R=Y%DF=Y%T=40%W=0%S=A%A=O%F=R%O=%RD=0%Q=)T5(R=Y%DF=Y%T=40%W\nOS:=0%S=Z%A=S+%F=AR%O=%RD=0%Q=)T6(R=Y%DF=Y%T=40%W=0%S=A%A=O%F=R%O=%RD=0%Q=)\nOS:T7(R=Y%DF=Y%T=40%W=0%S=Z%A=S+%F=AR%O=%RD=0%Q=)U1(R=Y%DF=N%T=40%IPL=164%U\nOS:N=0%RIPL=G%RID=G%RIPCK=G%RUCK=G%RUD=G)IE(R=Y%DFI=N%T=40%CD=Z)\n'
p327
sassS'ipidsequence'
p328
(dp329
g44
S'4D0,4D1,4D2,4D3,4D4,4D5'
p330
sg51
S'Incremental'
p331
sssS'_services'
p332
(lp333
g2
(clibnmap.objects.service
NmapService
p334
g4
NtRp335
(dp336
S'_tunnel'
p337
S''
sS'_portid'
p338
I22
sS'_cpelist'
p339
(lp340
sS'_reason'
p341
S'syn-ack'
p342
sS'_state'
p343
(dp344
g59
S'open'
p345
sg65
g342
sS'reason_ttl'
p346
S'64'
p347
ssS'_reason_ttl'
p348
g347
sS'_owner'
p349
S''
sS'_reason_ip'
p350
S''
sS'_servicefp'
p351
S''
sS'_protocol'
p352
S'tcp'
p353
sS'_service_extras'
p354
(dp355
S'scripts'
p356
(lp357
ssS'_service'
p358
(dp359
S'method'
p360
S'table'
p361
sS'cpelist'
p362
(lp363
sS'conf'
p364
S'3'
sg77
S'ssh'
p365
ssbag2
(g334
g4
NtRp366
(dp367
g337
S''
sg338
I135
sg339
(lp368
sg341
S'syn-ack'
p369
sg343
(dp370
g59
S'open'
p371
sg65
g369
sg346
S'64'
p372
ssg348
g372
sg349
S''
sg350
S''
sg351
S''
sg352
S'tcp'
p373
sg354
(dp374
g356
(lp375
ssg358
(dp376
g360
S'table'
p377
sg362
(lp378
sg364
S'3'
sg77
S'msrpc'
p379
ssbag2
(g334
g4
NtRp380
(dp381
g337
S''
sg338
I139
sg339
(lp382
sg341
S'syn-ack'
p383
sg343
(dp384
g59
S'open'
p385
sg65
g383
sg346
S'64'
p386
ssg348
g386
sg349
S''
sg350
S''
sg351
S''
sg352
S'tcp'
p387
sg354
(dp388
g356
(lp389
ssg358
(dp390
g360
S'table'
p391
sg362
(lp392
sg364
S'3'
sg77
S'netbios-ssn'
p393
ssbag2
(g334
g4
NtRp394
(dp395
g337
S''
sg338
I445
sg339
(lp396
sg341
S'syn-ack'
p397
sg343
(dp398
g59
S'open'
p399
sg65
g397
sg346
S'64'
p400
ssg348
g400
sg349
S''
sg350
S''
sg351
S''
sg352
S'tcp'
p401
sg354
(dp402
g356
(lp403
ssg358
(dp404
g360
S'table'
p405
sg362
(lp406
sg364
S'3'
sg77
S'microsoft-ds'
p407
ssbag2
(g334
g4
NtRp408
(dp409
g337
S''
sg338
I2179
sg339
(lp410
sg341
S'syn-ack'
p411
sg343
(dp412
g59
S'open'
p413
sg65
g411
sg346
S'64'
p414
ssg348
g414
sg349
S''
sg350
S''
sg351
S''
sg352
S'tcp'
p415
sg354
(dp416
g356
(lp417
ssg358
(dp418
g360
S'table'
p419
sg362
(lp420
sg364
S'3'
sg77
S'vmrdp'
p421
ssbag2
(g334
g4
NtRp422
(dp423
g337
S''
sg338
I3389
sg339
(lp424
sg341
S'syn-ack'
p425
sg343
(dp426
g59
S'open'
p427
sg65
g425
sg346
S'64'
p428
ssg348
g428
sg349
S''
sg350
S''
sg351
S''
sg352
S'tcp'
p429
sg354
(dp430
g356
(lp431
ssg358
(dp432
g360
S'table'
p433
sg362
(lp434
sg364
S'3'
sg77
S'ms-wbt-server'
p435
ssbag2
(g334
g4
NtRp436
(dp437
g337
S''
sg338
I5357
sg339
(lp438
sg341
S'syn-ack'
p439
sg343
(dp440
g59
S'open'
p441
sg65
g439
sg346
S'64'
p442
ssg348
g442
sg349
S''
sg350
S''
sg351
S''
sg352
S'tcp'
p443
sg354
(dp444
g356
(lp445
ssg358
(dp446
g360
S'table'
p447
sg362
(lp448
sg364
S'3'
sg77
S'wsdapi'
p449
ssbasS'_starttime'
p450
S'1513132747'
p451
sS'_endtime'
p452
S'1513132764'
p453
sS'_hostnames'
p454
(lp455
sS'_vendor'
p456
g18
sS'_ipv4_addr'
p457
g14
sS'_mac_addr'
p458
g19
sS'_main_address'
p459
g14
sS'_status'
p460
(dp461
g59
S'up'
p462
sg65
S'arp-response'
p463
sg346
S'0'
ssS'os'
p464
g2
(clibnmap.objects.os
NmapOSFingerprint
p465
g4
NtRp466
(dp467
S'_NmapOSFingerprint__fingerprints'
p468
(lp469
g327
asS'_NmapOSFingerprint__osmatches'
p470
(lp471
g2
(clibnmap.objects.os
NmapOSMatch
p472
g4
NtRp473
(dp474
S'_line'
p475
g76
sS'_accuracy'
p476
g80
sS'_osclasses'
p477
(lp478
g2
(clibnmap.objects.os
NmapOSClass
p479
g4
NtRp480
(dp481
S'_type'
p482
g90
sg339
(lp483
g2
(clibnmap.objects.cpe
CPE
p484
g4
NtRp485
(dp486
S'cpedict'
p487
(dp488
sS'_cpestring'
p489
g96
sS'_cpedict'
p490
(dp491
S'product'
p492
S'windows_vista'
p493
sS'vendor'
p494
S'microsoft'
p495
sS'language'
p496
S''
sg94
S'cpe'
p497
sS'update'
p498
S''
sS'edition'
p499
S''
sS'version'
p500
S''
sS'part'
p501
S'/o'
p502
ssbasg476
g93
sg456
g86
sS'_osfamily'
p503
g88
sS'_osgen'
p504
g92
sbag2
(g479
g4
NtRp505
(dp506
g482
g101
sg339
(lp507
g2
(g484
g4
NtRp508
(dp509
g487
(dp510
sg489
g104
sg490
(dp511
g492
S'windows_7'
p512
sg494
S'microsoft'
p513
sg496
S''
sg94
S'cpe'
p514
sg498
S'sp1'
p515
sg499
S''
sg500
S''
sg501
S'/o'
p516
ssbasg476
g102
sg456
g99
sg503
g100
sg504
S'7'
sbag2
(g479
g4
NtRp517
(dp518
g482
g109
sg339
(lp519
g2
(g484
g4
NtRp520
(dp521
g487
(dp522
sg489
g113
sg490
(dp523
g492
S'windows_8.1'
p524
sg494
S'microsoft'
p525
sg496
S''
sg94
S'cpe'
p526
sg498
S''
sg499
S''
sg500
S''
sg501
S'/o'
p527
ssbasg476
g111
sg456
g107
sg503
g108
sg504
g110
sbasS'_name'
p528
g78
sbag2
(g472
g4
NtRp529
(dp530
g475
g116
sg476
g118
sg477
(lp531
g2
(g479
g4
NtRp532
(dp533
g482
g124
sg339
(lp534
g2
(g484
g4
NtRp535
(dp536
g487
(dp537
sg489
g128
sg490
(dp538
g492
S'windows_10'
p539
sg494
S'microsoft'
p540
sg496
S''
sg94
S'cpe'
p541
sg498
S''
sg499
S''
sg500
S''
sg501
S'/o'
p542
ssbasg476
g126
sg456
g122
sg503
g123
sg504
g125
sbasg528
g117
sbag2
(g472
g4
NtRp543
(dp544
g475
g131
sg476
g133
sg477
(lp545
g2
(g479
g4
NtRp546
(dp547
g482
g139
sg339
(lp548
g2
(g484
g4
NtRp549
(dp550
g487
(dp551
sg489
g143
sg490
(dp552
g492
S'windows_vista'
p553
sg494
S'microsoft'
p554
sg496
S''
sg94
S'cpe'
p555
sg498
S'sp2'
p556
sg499
S''
sg500
S''
sg501
S'/o'
p557
ssbasg476
g141
sg456
g137
sg503
g138
sg504
g140
sbag2
(g479
g4
NtRp558
(dp559
g482
g148
sg339
(lp560
g2
(g484
g4
NtRp561
(dp562
g487
(dp563
sg489
g151
sg490
(dp564
g492
S'windows_7'
p565
sg494
S'microsoft'
p566
sg496
S''
sg94
S'cpe'
p567
sg498
S'-'
sg499
S'ultimate'
p568
sg500
S''
sg501
S'/o'
p569
ssbag2
(g484
g4
NtRp570
(dp571
g487
(dp572
sg489
g152
sg490
(dp573
g492
S'windows_7'
p574
sg494
S'microsoft'
p575
sg496
S''
sg94
S'cpe'
p576
sg498
S'sp1'
p577
sg499
S'ultimate'
p578
sg500
S''
sg501
S'/o'
p579
ssbasg476
g149
sg456
g146
sg503
g147
sg504
S'7'
sbasg528
g132
sbag2
(g472
g4
NtRp580
(dp581
g475
g155
sg476
g157
sg477
(lp582
g2
(g479
g4
NtRp583
(dp584
g482
g163
sg339
(lp585
g2
(g484
g4
NtRp586
(dp587
g487
(dp588
sg489
g167
sg490
(dp589
g492
S'windows_vista'
p590
sg494
S'microsoft'
p591
sg496
S''
sg94
S'cpe'
p592
sg498
S''
sg499
S''
sg500
S''
sg501
S'/o'
p593
ssbasg476
g165
sg456
g161
sg503
g162
sg504
g164
sbasg528
g156
sbag2
(g472
g4
NtRp594
(dp595
g475
g170
sg476
g172
sg477
(lp596
g2
(g479
g4
NtRp597
(dp598
g482
g178
sg339
(lp599
g2
(g484
g4
NtRp600
(dp601
g487
(dp602
sg489
g181
sg490
(dp603
g492
S'windows_7'
p604
sg494
S'microsoft'
p605
sg496
S''
sg94
S'cpe'
p606
sg498
S'sp1'
p607
sg499
S''
sg500
S''
sg501
S'/o'
p608
ssbasg476
g179
sg456
g176
sg503
g177
sg504
S'7'
sbasg528
g171
sbag2
(g472
g4
NtRp609
(dp610
g475
g184
sg476
g186
sg477
(lp611
g2
(g479
g4
NtRp612
(dp613
g482
g192
sg339
(lp614
g2
(g484
g4
NtRp615
(dp616
g487
(dp617
sg489
g195
sg490
(dp618
g492
S'windows_7'
p619
sg494
S'microsoft'
p620
sg496
S''
sg94
S'cpe'
p621
sg498
S'sp1'
p622
sg499
S''
sg500
S''
sg501
S'/o'
p623
ssbasg476
g193
sg456
g190
sg503
g191
sg504
S'7'
sbasg528
g185
sbag2
(g472
g4
NtRp624
(dp625
g475
g198
sg476
g200
sg477
(lp626
g2
(g479
g4
NtRp627
(dp628
g482
g206
sg339
(lp629
g2
(g484
g4
NtRp630
(dp631
g487
(dp632
sg489
g209
sg490
(dp633
g492
S'windows_7'
p634
sg494
S'microsoft'
p635
sg496
S''
sg94
S'cpe'
p636
sg498
S'-'
sg499
S''
sg500
S''
sg501
S'/o'
p637
ssbag2
(g484
g4
NtRp638
(dp639
g487
(dp640
sg489
g210
sg490
(dp641
g492
S'windows_7'
p642
sg494
S'microsoft'
p643
sg496
S''
sg94
S'cpe'
p644
sg498
S'sp1'
p645
sg499
S''
sg500
S''
sg501
S'/o'
p646
ssbasg476
g207
sg456
g204
sg503
g205
sg504
S'7'
sbasg528
g199
sbag2
(g472
g4
NtRp647
(dp648
g475
g213
sg476
g215
sg477
(lp649
g2
(g479
g4
NtRp650
(dp651
g482
g221
sg339
(lp652
g2
(g484
g4
NtRp653
(dp654
g487
(dp655
sg489
g225
sg490
(dp656
g492
S'windows_server_2008'
p657
sg494
S'microsoft'
p658
sg496
S''
sg94
S'cpe'
p659
sg498
S'sp2'
p660
sg499
S''
sg500
S''
sg501
S'/o'
p661
ssbasg476
g223
sg456
g219
sg503
g220
sg504
g222
sbag2
(g479
g4
NtRp662
(dp663
g482
g230
sg339
(lp664
g2
(g484
g4
NtRp665
(dp666
g487
(dp667
sg489
g234
sg490
(dp668
g492
S'windows_10'
p669
sg494
S'microsoft'
p670
sg496
S''
sg94
S'cpe'
p671
sg498
S''
sg499
S''
sg500
S''
sg501
S'/o'
p672
ssbasg476
g232
sg456
g228
sg503
g229
sg504
g231
sbag2
(g479
g4
NtRp673
(dp674
g482
g239
sg339
(lp675
g2
(g484
g4
NtRp676
(dp677
g487
(dp678
sg489
g242
sg490
(dp679
g492
S'xbox_one'
p680
sg494
S'microsoft'
p681
sg496
S''
sg94
S'cpe'
p682
sg498
S''
sg499
S''
sg500
S''
sg501
S'/h'
p683
ssbasg476
g240
sg456
g237
sg503
g238
sg504
S''
sbasg528
g214
sbag2
(g472
g4
NtRp684
(dp685
g475
g245
sg476
g247
sg477
(lp686
g2
(g479
g4
NtRp687
(dp688
g482
g253
sg339
(lp689
g2
(g484
g4
NtRp690
(dp691
g487
(dp692
sg489
g256
sg490
(dp693
g492
S'windows_7'
p694
sg494
S'microsoft'
p695
sg496
S''
sg94
S'cpe'
p696
sg498
S''
sg499
S''
sg500
S''
sg501
S'/o'
p697
ssbasg476
g254
sg456
g251
sg503
g252
sg504
S'7'
sbag2
(g479
g4
NtRp698
(dp699
g482
g261
sg339
(lp700
g2
(g484
g4
NtRp701
(dp702
g487
(dp703
sg489
g265
sg490
(dp704
g492
S'windows_server_2008'
p705
sg494
S'microsoft'
p706
sg496
S''
sg94
S'cpe'
p707
sg498
S''
sg499
S''
sg500
S''
sg501
S'/o'
p708
ssbasg476
g263
sg456
g259
sg503
g260
sg504
g262
sbasg528
g246
sbag2
(g472
g4
NtRp709
(dp710
g475
g268
sg476
g270
sg477
(lp711
g2
(g479
g4
NtRp712
(dp713
g482
g276
sg339
(lp714
g2
(g484
g4
NtRp715
(dp716
g487
(dp717
sg489
g279
sg490
(dp718
g492
S'windows_7'
p719
sg494
S'microsoft'
p720
sg496
S''
sg94
S'cpe'
p721
sg498
S'-'
sg499
S''
sg500
S''
sg501
S'/o'
p722
ssbag2
(g484
g4
NtRp723
(dp724
g487
(dp725
sg489
g280
sg490
(dp726
g492
S'windows_7'
p727
sg494
S'microsoft'
p728
sg496
S''
sg94
S'cpe'
p729
sg498
S'sp1'
p730
sg499
S''
sg500
S''
sg501
S'/o'
p731
ssbasg476
g277
sg456
g274
sg503
g275
sg504
S'7'
sbag2
(g479
g4
NtRp732
(dp733
g482
g285
sg339
(lp734
g2
(g484
g4
NtRp735
(dp736
g487
(dp737
sg489
g289
sg490
(dp738
g492
S'windows_server_2008'
p739
sg494
S'microsoft'
p740
sg496
S''
sg94
S'cpe'
p741
sg498
S'sp1'
p742
sg499
S''
sg500
S''
sg501
S'/o'
p743
ssbasg476
g287
sg456
g283
sg503
g284
sg504
g286
sbag2
(g479
g4
NtRp744
(dp745
g482
g294
sg339
(lp746
g2
(g484
g4
NtRp747
(dp748
g487
(dp749
sg489
g297
sg490
(dp750
g492
S'windows_8'
p751
sg494
S'microsoft'
p752
sg496
S''
sg94
S'cpe'
p753
sg498
S''
sg499
S''
sg500
S''
sg501
S'/o'
p754
ssbasg476
g295
sg456
g292
sg503
g293
sg504
S'8'
sbag2
(g479
g4
NtRp755
(dp756
g482
g302
sg339
(lp757
g2
(g484
g4
NtRp758
(dp759
g487
(dp760
sg489
g306
sg490
(dp761
g492
S'windows_8.1'
p762
sg494
S'microsoft'
p763
sg496
S''
sg94
S'cpe'
p764
sg498
S''
sg499
S''
sg500
S''
sg501
S'/o'
p765
ssbasg476
g304
sg456
g300
sg503
g301
sg504
g303
sbasg528
g269
sbasS'_NmapOSFingerprint__ports_used'
p766
(lp767
g2
(clibnmap.objects.os
OSFPPortUsed
p768
g4
NtRp769
(dp770
g343
g310
sS'_proto'
p771
g314
sg338
g312
sbag2
(g768
g4
NtRp772
(dp773
g343
g316
sg771
g317
sg338
S'1'
sbag2
(g768
g4
NtRp774
(dp775
g343
g319
sg771
g321
sg338
g320
sbasbsbag2
(g3
g4
NtRp776
(dp777
g7
I01
sg8
(lp778
(dp779
g11
S'ipv4'
p780
sg13
S'192.168.1.115'
p781
sasg20
Nsg21
(dp782
g23
(dp783
g25
S'0'
ssg26
(dp784
g28
S'16133761'
p785
sg30
S'Fri Jun  9 05:03:27 2017'
p786
ssg32
(dp787
g34
S'100000'
p788
sg36
S'3'
sg38
S'29'
p789
ssg40
(dp790
g42
S'260'
p791
sg44
S'762ECA69,AD785393,94D36567,7EB805D1,781B4928,12F0DA01'
p792
sg46
S'Good luck!'
p793
ssg48
(dp794
g44
S'F06968AC,F06968C5,F06968DE,F06968F7,F0696910,F0696929'
p795
sg51
S'other'
p796
ssg53
(dp797
g55
(dp798
g57
S'999'
p799
sg59
S'closed'
p800
ssg61
(lp801
(dp802
g57
S'999'
p803
sg65
S'resets'
p804
sasg67
g798
ssg68
(dp805
g70
(lp806
(dp807
g73
(dp808
g75
S'57420'
p809
sg77
S'Linux 3.12 - 3.19'
p810
sg79
S'100'
p811
ssg81
(lp812
(dp813
g84
(dp814
g17
S'Linux'
p815
sg87
S'Linux'
p816
sg89
S'general purpose'
p817
sg91
S'3.X'
p818
sg79
S'100'
p819
ssg94
(lp820
S'cpe:/o:linux:linux_kernel:3'
p821
asasa(dp822
g73
(dp823
g75
S'59486'
p824
sg77
S'Linux 3.8 - 3.19'
p825
sg79
S'100'
p826
ssg81
(lp827
(dp828
g84
(dp829
g17
S'Linux'
p830
sg87
S'Linux'
p831
sg89
S'general purpose'
p832
sg91
S'3.X'
p833
sg79
S'100'
p834
ssg94
(lp835
S'cpe:/o:linux:linux_kernel:3'
p836
asasasg307
(lp837
(dp838
g59
S'open'
p839
sg311
S'5009'
p840
sg313
S'tcp'
p841
sa(dp842
g59
S'closed'
p843
sg311
S'1'
sg313
S'tcp'
p844
sa(dp845
g59
S'closed'
p846
sg311
S'41483'
p847
sg313
S'udp'
p848
sasg81
(lp849
sg323
(lp850
(dp851
g326
S'OS:SCAN(V=7.01%E=4%D=12/12%OT=5009%CT=1%CU=41483%PV=Y%DS=0%DC=L%G=Y%TM=5A30\nOS:92E0%P=x86_64-pc-linux-gnu)SEQ(SP=104%GCD=1%ISR=106%TI=Z%CI=I%TS=8)OPS(O\nOS:1=MFFD7ST11NW7%O2=MFFD7ST11NW7%O3=MFFD7NNT11NW7%O4=MFFD7ST11NW7%O5=MFFD7\nOS:ST11NW7%O6=MFFD7ST11)WIN(W1=AAAA%W2=AAAA%W3=AAAA%W4=AAAA%W5=AAAA%W6=AAAA\nOS:)ECN(R=Y%DF=Y%T=40%W=AAAA%O=MFFD7NNSNW7%CC=Y%Q=)T1(R=Y%DF=Y%T=40%S=O%A=S\nOS:+%F=AS%RD=0%Q=)T2(R=N)T3(R=N)T4(R=Y%DF=Y%T=40%W=0%S=A%A=Z%F=R%O=%RD=0%Q=\nOS:)T5(R=Y%DF=Y%T=40%W=0%S=Z%A=S+%F=AR%O=%RD=0%Q=)T6(R=Y%DF=Y%T=40%W=0%S=A%\nOS:A=Z%F=R%O=%RD=0%Q=)T7(R=Y%DF=Y%T=40%W=0%S=Z%A=S+%F=AR%O=%RD=0%Q=)U1(R=Y%\nOS:DF=N%T=40%IPL=164%UN=0%RIPL=G%RID=G%RIPCK=G%RUCK=G%RUD=G)IE(R=Y%DFI=N%T=\nOS:40%CD=S)\n'
p852
sassg328
(dp853
g44
S'0,0,0,0,0,0'
p854
sg51
S'All zeros'
p855
sssg332
(lp856
g2
(g334
g4
NtRp857
(dp858
g337
S''
sg338
I5009
sg339
(lp859
sg341
S'syn-ack'
p860
sg343
(dp861
g59
S'open'
p862
sg65
g860
sg346
S'64'
p863
ssg348
g863
sg349
S''
sg350
S''
sg351
S''
sg352
S'tcp'
p864
sg354
(dp865
g356
(lp866
ssg358
(dp867
g360
S'table'
p868
sg362
(lp869
sg364
S'3'
sg77
S'airport-admin'
p870
ssbasg450
S'1513132764'
p871
sg452
S'1513132768'
p872
sg454
(lp873
sg456
Nsg457
g781
sg458
Nsg459
g781
sg460
(dp874
g59
S'up'
p875
sg65
S'user-set'
p876
sg346
S'0'
ssg464
g2
(g465
g4
NtRp877
(dp878
g468
(lp879
g852
asg470
(lp880
g2
(g472
g4
NtRp881
(dp882
g475
g809
sg476
g811
sg477
(lp883
g2
(g479
g4
NtRp884
(dp885
g482
g817
sg339
(lp886
g2
(g484
g4
NtRp887
(dp888
g487
(dp889
sg489
g821
sg490
(dp890
g492
S'linux_kernel'
p891
sg494
S'linux'
p892
sg496
S''
sg94
S'cpe'
p893
sg498
S''
sg499
S''
sg500
S'3'
sg501
S'/o'
p894
ssbasg476
g819
sg456
g815
sg503
g816
sg504
g818
sbasg528
g810
sbag2
(g472
g4
NtRp895
(dp896
g475
g824
sg476
g826
sg477
(lp897
g2
(g479
g4
NtRp898
(dp899
g482
g832
sg339
(lp900
g2
(g484
g4
NtRp901
(dp902
g487
(dp903
sg489
g836
sg490
(dp904
g492
S'linux_kernel'
p905
sg494
S'linux'
p906
sg496
S''
sg94
S'cpe'
p907
sg498
S''
sg499
S''
sg500
S'3'
sg501
S'/o'
p908
ssbasg476
g834
sg456
g830
sg503
g831
sg504
g833
sbasg528
g825
sbasg766
(lp909
g2
(g768
g4
NtRp910
(dp911
g343
g839
sg771
g841
sg338
g840
sbag2
(g768
g4
NtRp912
(dp913
g343
g843
sg771
g844
sg338
S'1'
sbag2
(g768
g4
NtRp914
(dp915
g343
g846
sg771
g848
sg338
g847
sbasbsbag2
(g3
g4
NtRp916
(dp917
g7
I01
sg8
(lp918
(dp919
S'addrtype'
p920
S'ipv4'
p921
sS'addr'
p922
S'169.30.11.23'
p923
sasg20
Nsg21
(dp924
S'extraports'
p925
(dp926
S'count'
p927
(dp928
S'count'
p929
S'1000'
p930
sS'state'
p931
S'filtered'
p932
ssS'reasons'
p933
(lp934
(dp935
g929
S'1000'
p936
sS'reason'
p937
S'no-responses'
p938
sasS'state'
p939
g928
ssg464
(dp940
S'osmatches'
p941
(lp942
sS'ports_used'
p943
(lp944
sS'osfingerprints'
p945
(lp946
(dp947
S'fingerprint'
p948
S'SCAN(V=7.01%E=4%D=12/12%OT=%CT=%CU=%PV=N%G=N%TM=5A309360%P=x86_64-pc-linux-gnu)\nU1(R=N)\nIE(R=N)\n'
p949
sasS'osclasses'
p950
(lp951
sssg332
(lp952
sg450
S'1513132789'
p953
sg452
S'1513132896'
p954
sg454
(lp955
sg456
Nsg457
g923
sg458
Nsg459
g923
sg460
(dp956
g931
S'up'
p957
sg937
S'user-set'
p958
sS'reason_ttl'
p959
S'0'
ssg464
g2
(g465
g4
NtRp960
(dp961
g468
(lp962
g949
asg470
(lp963
sg766
(lp964
sbsba.